

Microchip Technology PIC18 LITE Macro Assembler V1.33 build 59893 
                                                                                               Fri Oct 02 22:39:12 2020

Microchip Technology Omniscient Code Generator (Lite mode) build 59893
     1                           	processor	18F45K22
     2                           	fnconf	rparam,??,?,0
     3                           	opt	pw 120
     4                           	opt	lm
     5                           	psect	idataCOMRAM,global,class=CODE,delta=1
     6                           	psect	smallconst,global,reloc=2,class=SMALLCONST,delta=1
     7                           	psect	cinit,global,reloc=2,class=CODE,delta=1
     8                           	psect	bssCOMRAM,global,class=COMRAM,space=1,delta=1
     9                           	psect	dataCOMRAM,global,class=COMRAM,space=1,delta=1
    10                           	psect	bssBANK0,global,class=BANK0,space=1,delta=1
    11                           	psect	bssBANK1,global,class=BANK1,space=1,delta=1
    12                           	psect	cstackBANK0,global,class=BANK0,space=1,delta=1
    13                           	psect	cstackCOMRAM,global,class=COMRAM,space=1,delta=1
    14                           	psect	text0,global,reloc=2,class=CODE,delta=1
    15                           	psect	text1,global,reloc=2,class=CODE,delta=1
    16                           	psect	text2,global,reloc=2,class=CODE,delta=1
    17                           	psect	text3,global,reloc=2,class=CODE,delta=1
    18                           	psect	text4,global,reloc=2,class=CODE,delta=1
    19                           	psect	text5,global,reloc=2,class=CODE,delta=1
    20                           	psect	text6,global,reloc=2,class=CODE,delta=1
    21                           	psect	text7,global,reloc=2,class=CODE,delta=1
    22                           	psect	text8,global,reloc=2,class=CODE,delta=1
    23                           	psect	text9,global,reloc=2,class=CODE,delta=1
    24                           	psect	text10,global,reloc=2,class=CODE,delta=1
    25                           	psect	text11,global,reloc=2,class=CODE,delta=1
    26                           	psect	text12,global,reloc=2,class=CODE,delta=1
    27                           	psect	text13,global,reloc=2,class=CODE,delta=1
    28                           	psect	text14,global,reloc=2,class=CODE,delta=1
    29                           	psect	text15,global,reloc=2,class=CODE,delta=1
    30                           	psect	text16,global,reloc=2,class=CODE,delta=1
    31                           	psect	text17,global,reloc=2,class=CODE,delta=1
    32                           	psect	text18,global,reloc=2,class=CODE,delta=1
    33                           	psect	text19,global,reloc=2,class=CODE,delta=1
    34                           	psect	text20,global,reloc=2,class=CODE,delta=1
    35                           	psect	text21,global,reloc=2,class=CODE,delta=1
    36                           	psect	text22,global,reloc=2,class=CODE,delta=1
    37                           	psect	intcode,global,reloc=2,class=CODE,delta=1
    38                           	psect	text24,global,reloc=2,class=CODE,delta=1
    39                           	psect	text25,global,reloc=2,class=CODE,delta=1
    40                           	psect	text26,global,reloc=2,class=CODE,delta=1
    41                           	psect	text27,global,reloc=2,class=CODE,delta=1
    42                           	psect	text28,global,reloc=2,class=CODE,delta=1
    43                           	psect	text29,global,reloc=2,class=CODE,delta=1
    44                           	psect	intsave_regs,global,class=BIGRAM,space=1,delta=1
    45                           	psect	rparam,global,class=COMRAM,space=1,delta=1
    46  0000                     
    47                           	psect	idataCOMRAM
    48  0015BA                     __pidataCOMRAM:
    49                           	opt stack 0
    50                           
    51                           ;initializer for _HMSec
    52  0015BA  0A                 	db	10
    53                           
    54                           ;initializer for _OneSec
    55  0015BB  64                 	db	100
    56                           
    57                           ;initializer for _TmrSec
    58  0015BC  3C                 	db	60
    59                           
    60                           ;initializer for _lcd_disp
    61  0015BD  0C                 	db	12
    62  0000                     _ADCON0	set	4034
    63  0000                     _ADCON0bits	set	4034
    64  0000                     _ADCON1	set	4033
    65  0000                     _ADCON2	set	4032
    66  0000                     _ADRESH	set	4036
    67  0000                     _ADRESL	set	4035
    68  0000                     _ANSELA	set	3896
    69  0000                     _ANSELB	set	3897
    70  0000                     _ANSELC	set	3898
    71  0000                     _ANSELD	set	3899
    72  0000                     _ANSELE	set	3900
    73  0000                     _BAUDCON1bits	set	4024
    74  0000                     _BAUDCON2bits	set	3952
    75  0000                     _CCP1CON	set	4029
    76  0000                     _CCP2CON	set	3942
    77  0000                     _CCP3CON	set	3933
    78  0000                     _CCP4CON	set	3927
    79  0000                     _CCPR1H	set	4031
    80  0000                     _CCPR1L	set	4030
    81  0000                     _CCPR2H	set	3944
    82  0000                     _CCPR2L	set	3943
    83  0000                     _CCPR3H	set	3935
    84  0000                     _CCPR3L	set	3934
    85  0000                     _CCPR4H	set	3929
    86  0000                     _CCPR4L	set	3928
    87  0000                     _CCPTMRS0bits	set	3913
    88  0000                     _CCPTMRS1bits	set	3912
    89  0000                     _ECCP1AS	set	4022
    90  0000                     _ECCP2AS	set	3940
    91  0000                     _ECCP3AS	set	3931
    92  0000                     _EEADR	set	4009
    93  0000                     _EECON1bits	set	4006
    94  0000                     _EECON2	set	4007
    95  0000                     _EEDATA	set	4008
    96  0000                     _INTCON2bits	set	4081
    97  0000                     _INTCON3bits	set	4080
    98  0000                     _INTCONbits	set	4082
    99  0000                     _LATA	set	3977
   100  0000                     _LATAbits	set	3977
   101  0000                     _LATB	set	3978
   102  0000                     _LATBbits	set	3978
   103  0000                     _LATC	set	3979
   104  0000                     _LATCbits	set	3979
   105  0000                     _LATD	set	3980
   106  0000                     _LATDbits	set	3980
   107  0000                     _LATE	set	3981
   108  0000                     _LATEbits	set	3981
   109  0000                     _OSCCON	set	4051
   110  0000                     _OSCCON2	set	4050
   111  0000                     _OSCTUNE	set	3995
   112  0000                     _PIE3bits	set	4003
   113  0000                     _PIR1bits	set	3998
   114  0000                     _PORTAbits	set	3968
   115  0000                     _PORTBbits	set	3969
   116  0000                     _PORTCbits	set	3970
   117  0000                     _PORTDbits	set	3971
   118  0000                     _PORTEbits	set	3972
   119  0000                     _PR2	set	4027
   120  0000                     _PSTR1CON	set	4025
   121  0000                     _PSTR2CON	set	3939
   122  0000                     _PSTR3CON	set	3930
   123  0000                     _PWM1CON	set	4023
   124  0000                     _PWM2CON	set	3941
   125  0000                     _PWM3CON	set	3932
   126  0000                     _RCONbits	set	4048
   127  0000                     _RCREG1	set	4014
   128  0000                     _RCREG2	set	3956
   129  0000                     _RCSTA	set	4011
   130  0000                     _RCSTA2	set	3953
   131  0000                     _RCSTA2bits	set	3953
   132  0000                     _SPBRG1	set	4015
   133  0000                     _SPBRG2	set	3957
   134  0000                     _SPBRGH	set	4016
   135  0000                     _SPBRGH2	set	3958
   136  0000                     _SSP1BUF	set	4041
   137  0000                     _SSPADD	set	4040
   138  0000                     _SSPCON1bits	set	4038
   139  0000                     _SSPCON2	set	4037
   140  0000                     _SSPCON2bits	set	4037
   141  0000                     _SSPSTATbits	set	4039
   142  0000                     _T0CON	set	4053
   143  0000                     _T1CON	set	4045
   144  0000                     _T1CONbits	set	4045
   145  0000                     _T1GCON	set	4044
   146  0000                     _T2CON	set	4026
   147  0000                     _T2CONbits	set	4026
   148  0000                     _TMR0H	set	4055
   149  0000                     _TMR0L	set	4054
   150  0000                     _TMR1H	set	4047
   151  0000                     _TMR1L	set	4046
   152  0000                     _TMR2	set	4028
   153  0000                     _TRISAbits	set	3986
   154  0000                     _TRISBbits	set	3987
   155  0000                     _TRISCbits	set	3988
   156  0000                     _TRISDbits	set	3989
   157  0000                     _TRISEbits	set	3990
   158  0000                     _TXREG	set	4013
   159  0000                     _TXREG2	set	3955
   160  0000                     _TXSTA	set	4012
   161  0000                     _TXSTA2	set	3954
   162  0000                     _VREFCON0	set	3906
   163  0000                     _PEIE	set	32662
   164  0000                     _PLLRDY	set	32407
   165  0000                     _RC2IE	set	32029
   166  0000                     _RC2IF	set	32037
   167  0000                     _RC2IP	set	32045
   168  0000                     _RCIE	set	31981
   169  0000                     _RCIF	set	31989
   170  0000                     _RCIP	set	31997
   171  0000                     _TMR0IE	set	32661
   172  0000                     _TMR0IF	set	32658
   173  0000                     _TMR0IP	set	32650
   174  0000                     _TX2IE	set	32028
   175  0000                     _TX2IF	set	32036
   176  0000                     _TX2IP	set	32044
   177  0000                     _TXIE	set	31980
   178  0000                     _TXIF	set	31988
   179  0000                     _TXIP	set	31996
   180                           
   181                           	psect	smallconst
   182  000600                     __psmallconst:
   183                           	opt stack 0
   184  000600  00                 	db	0
   185  000601                     __stringdata:
   186                           	opt stack 0
   187  000601                     STR_1:
   188  000601  48                 	db	72	;'H'
   189  000602  65                 	db	101	;'e'
   190  000603  6C                 	db	108	;'l'
   191  000604  6C                 	db	108	;'l'
   192  000605  6F                 	db	111	;'o'
   193  000606  20                 	db	32
   194  000607  57                 	db	87	;'W'
   195  000608  6F                 	db	111	;'o'
   196  000609  72                 	db	114	;'r'
   197  00060A  6C                 	db	108	;'l'
   198  00060B  64                 	db	100	;'d'
   199  00060C  00                 	db	0
   200  00060D                     __end_of__stringdata:
   201                           	opt stack 0
   202  00060D  00                 	db	0	; dummy byte at the end
   203  0000                     
   204                           ; #config settings
   205                           
   206                           	psect	cinit
   207  0013B2                     __pcinit:
   208                           	opt stack 0
   209  0013B2                     start_initialization:
   210                           	opt stack 0
   211  0013B2                     __initialization:
   212                           	opt stack 0
   213                           
   214                           ; Clear objects allocated to BANK1 (192 bytes)
   215  0013B2  EE01  F000         	lfsr	0,__pbssBANK1
   216  0013B6  0EC0               	movlw	192
   217  0013B8                     clear_0:
   218  0013B8  6AEE               	clrf	postinc0,c
   219  0013BA  06E8               	decf	wreg,f,c
   220  0013BC  E1FD               	bnz	clear_0
   221                           
   222                           ; Clear objects allocated to BANK0 (111 bytes)
   223  0013BE  EE00  F060         	lfsr	0,__pbssBANK0
   224  0013C2  0E6F               	movlw	111
   225  0013C4                     clear_1:
   226  0013C4  6AEE               	clrf	postinc0,c
   227  0013C6  06E8               	decf	wreg,f,c
   228  0013C8  E1FD               	bnz	clear_1
   229                           
   230                           ; Clear objects allocated to COMRAM (46 bytes)
   231  0013CA  EE00  F001         	lfsr	0,__pbssCOMRAM
   232  0013CE  0E2E               	movlw	46
   233  0013D0                     clear_2:
   234  0013D0  6AEE               	clrf	postinc0,c
   235  0013D2  06E8               	decf	wreg,f,c
   236  0013D4  E1FD               	bnz	clear_2
   237                           
   238                           ; Initialize objects allocated to COMRAM (4 bytes)
   239                           ; load TBLPTR registers with __pidataCOMRAM
   240  0013D6  0EBA               	movlw	low __pidataCOMRAM
   241  0013D8  6EF6               	movwf	tblptrl,c
   242  0013DA  0E15               	movlw	high __pidataCOMRAM
   243  0013DC  6EF7               	movwf	tblptrh,c
   244  0013DE  0E00               	movlw	low (__pidataCOMRAM shr (0+16))
   245  0013E0  6EF8               	movwf	tblptru,c
   246  0013E2  EE00  F04B         	lfsr	0,__pdataCOMRAM
   247  0013E6  EE10 F004          	lfsr	1,4
   248  0013EA                     copy_data0:
   249  0013EA  0009               	tblrd		*+
   250  0013EC  CFF5 FFEE          	movff	tablat,postinc0
   251  0013F0  50E5               	movf	postdec1,w,c
   252  0013F2  50E1               	movf	fsr1l,w,c
   253  0013F4  E1FA               	bnz	copy_data0
   254  0013F6                     end_of_initialization:
   255                           	opt stack 0
   256  0013F6                     __end_of__initialization:
   257                           	opt stack 0
   258  0013F6  0E00               	movlw	low (__Lmediumconst shr (0+16))
   259  0013F8  6EF8               	movwf	tblptru,c
   260  0013FA  0100               	movlb	0
   261  0013FC  EFBF  F00A         	goto	_main	;jump to C main() function
   262                           tblptru	equ	0xFF8
   263                           tblptrh	equ	0xFF7
   264                           tblptrl	equ	0xFF6
   265                           tablat	equ	0xFF5
   266                           postinc0	equ	0xFEE
   267                           wreg	equ	0xFE8
   268                           postdec1	equ	0xFE5
   269                           fsr1l	equ	0xFE1
   270                           
   271                           	psect	bssCOMRAM
   272  000001                     __pbssCOMRAM:
   273                           	opt stack 0
   274  000001                     _Flags:
   275                           	opt stack 0
   276  000001                     	ds	1
   277  000002                     _Task1:
   278                           	opt stack 0
   279  000002                     	ds	1
   280  000003                     _TimerFlag:
   281                           	opt stack 0
   282  000003                     	ds	1
   283  000004                     _TmrRxd1:
   284                           	opt stack 0
   285  000004                     	ds	1
   286  000005                     _TmrRxd2:
   287                           	opt stack 0
   288  000005                     	ds	1
   289  000006                     __Addr:
   290                           	opt stack 0
   291  000006                     	ds	1
   292  000007                     _keypad_col1:
   293                           	opt stack 0
   294  000007                     	ds	1
   295  000008                     _keypad_col2:
   296                           	opt stack 0
   297  000008                     	ds	1
   298  000009                     _keypad_col3:
   299                           	opt stack 0
   300  000009                     	ds	1
   301  00000A                     _keypad_col4:
   302                           	opt stack 0
   303  00000A                     	ds	1
   304  00000B                     _keypad_mode:
   305                           	opt stack 0
   306  00000B                     	ds	1
   307  00000C                     _keypad_row1:
   308                           	opt stack 0
   309  00000C                     	ds	1
   310  00000D                     _keypad_row2:
   311                           	opt stack 0
   312  00000D                     	ds	1
   313  00000E                     _keypad_row3:
   314                           	opt stack 0
   315  00000E                     	ds	1
   316  00000F                     _keypad_row4:
   317                           	opt stack 0
   318  00000F                     	ds	1
   319  000010                     _kstate:
   320                           	opt stack 0
   321  000010                     	ds	1
   322  000011                     _lcd_d0:
   323                           	opt stack 0
   324  000011                     	ds	1
   325  000012                     _lcd_d1:
   326                           	opt stack 0
   327  000012                     	ds	1
   328  000013                     _lcd_d2:
   329                           	opt stack 0
   330  000013                     	ds	1
   331  000014                     _lcd_d3:
   332                           	opt stack 0
   333  000014                     	ds	1
   334  000015                     _lcd_d4:
   335                           	opt stack 0
   336  000015                     	ds	1
   337  000016                     _lcd_d5:
   338                           	opt stack 0
   339  000016                     	ds	1
   340  000017                     _lcd_d6:
   341                           	opt stack 0
   342  000017                     	ds	1
   343  000018                     _lcd_d7:
   344                           	opt stack 0
   345  000018                     	ds	1
   346  000019                     _lcd_en:
   347                           	opt stack 0
   348  000019                     	ds	1
   349  00001A                     _lcd_mode:
   350                           	opt stack 0
   351  00001A                     	ds	1
   352  00001B                     _lcd_rs:
   353                           	opt stack 0
   354  00001B                     	ds	1
   355  00001C                     _spi_mode:
   356                           	opt stack 0
   357  00001C                     	ds	1
   358  00001D                     _uart1_cr_cnt:
   359                           	opt stack 0
   360  00001D                     	ds	1
   361  00001E                     _uart1_lf_cnt:
   362                           	opt stack 0
   363  00001E                     	ds	1
   364  00001F                     _uart1_rx_char:
   365                           	opt stack 0
   366  00001F                     	ds	1
   367  000020                     _uart1_rx_cnt:
   368                           	opt stack 0
   369  000020                     	ds	1
   370  000021                     _uart1_rx_pos:
   371                           	opt stack 0
   372  000021                     	ds	1
   373  000022                     _uart1_rx_ready:
   374                           	opt stack 0
   375  000022                     	ds	1
   376  000023                     _uart1_tx_cnt:
   377                           	opt stack 0
   378  000023                     	ds	1
   379  000024                     _uart1_tx_pos:
   380                           	opt stack 0
   381  000024                     	ds	1
   382  000025                     _uart2_cr_cnt:
   383                           	opt stack 0
   384  000025                     	ds	1
   385  000026                     _uart2_lf_cnt:
   386                           	opt stack 0
   387  000026                     	ds	1
   388  000027                     _uart2_rx_char:
   389                           	opt stack 0
   390  000027                     	ds	1
   391  000028                     _uart2_rx_cnt:
   392                           	opt stack 0
   393  000028                     	ds	1
   394  000029                     _uart2_rx_pos:
   395                           	opt stack 0
   396  000029                     	ds	1
   397  00002A                     _uart2_rx_ready:
   398                           	opt stack 0
   399  00002A                     	ds	1
   400  00002B                     _uart2_tx_cnt:
   401                           	opt stack 0
   402  00002B                     	ds	1
   403  00002C                     _uart2_tx_pos:
   404                           	opt stack 0
   405  00002C                     	ds	1
   406  00002D                     keypadRead@keyNew:
   407                           	opt stack 0
   408  00002D                     	ds	1
   409  00002E                     keypadRead@keyOld:
   410                           	opt stack 0
   411  00002E                     	ds	1
   412                           tblptru	equ	0xFF8
   413                           tblptrh	equ	0xFF7
   414                           tblptrl	equ	0xFF6
   415                           tablat	equ	0xFF5
   416                           postinc0	equ	0xFEE
   417                           wreg	equ	0xFE8
   418                           postdec1	equ	0xFE5
   419                           fsr1l	equ	0xFE1
   420                           
   421                           	psect	dataCOMRAM
   422  00004B                     __pdataCOMRAM:
   423                           	opt stack 0
   424  00004B                     _HMSec:
   425                           	opt stack 0
   426  00004B                     	ds	1
   427  00004C                     _OneSec:
   428                           	opt stack 0
   429  00004C                     	ds	1
   430  00004D                     _TmrSec:
   431                           	opt stack 0
   432  00004D                     	ds	1
   433  00004E                     _lcd_disp:
   434                           	opt stack 0
   435  00004E                     	ds	1
   436                           tblptru	equ	0xFF8
   437                           tblptrh	equ	0xFF7
   438                           tblptrl	equ	0xFF6
   439                           tablat	equ	0xFF5
   440                           postinc0	equ	0xFEE
   441                           wreg	equ	0xFE8
   442                           postdec1	equ	0xFE5
   443                           fsr1l	equ	0xFE1
   444                           
   445                           	psect	bssBANK0
   446  000060                     __pbssBANK0:
   447                           	opt stack 0
   448  000060                     _uart1_txbuf:
   449                           	opt stack 0
   450  000060                     	ds	33
   451  000081                     _uart2_txbuf:
   452                           	opt stack 0
   453  000081                     	ds	33
   454  0000A2                     _TimerArray:
   455                           	opt stack 0
   456  0000A2                     	ds	20
   457  0000B6                     _sysTick:
   458                           	opt stack 0
   459  0000B6                     	ds	4
   460  0000BA                     _INT0_InterruptHandler:
   461                           	opt stack 0
   462  0000BA                     	ds	2
   463  0000BC                     _INT1_InterruptHandler:
   464                           	opt stack 0
   465  0000BC                     	ds	2
   466  0000BE                     _INT2_InterruptHandler:
   467                           	opt stack 0
   468  0000BE                     	ds	2
   469  0000C0                     _Task2:
   470                           	opt stack 0
   471  0000C0                     	ds	1
   472  0000C1                     _Task3:
   473                           	opt stack 0
   474  0000C1                     	ds	1
   475  0000C2                     _Task4:
   476                           	opt stack 0
   477  0000C2                     	ds	1
   478  0000C3                     _Task5:
   479                           	opt stack 0
   480  0000C3                     	ds	1
   481  0000C4                     _Task6:
   482                           	opt stack 0
   483  0000C4                     	ds	1
   484  0000C5                     _Task7:
   485                           	opt stack 0
   486  0000C5                     	ds	1
   487  0000C6                     _Task8:
   488                           	opt stack 0
   489  0000C6                     	ds	1
   490  0000C7                     __cols:
   491                           	opt stack 0
   492  0000C7                     	ds	1
   493  0000C8                     __rows:
   494                           	opt stack 0
   495  0000C8                     	ds	1
   496  0000C9                     _i2c_error_flag:
   497                           	opt stack 0
   498  0000C9                     	ds	1
   499  0000CA                     _lcd_cols:
   500                           	opt stack 0
   501  0000CA                     	ds	1
   502  0000CB                     _lcd_rows:
   503                           	opt stack 0
   504  0000CB                     	ds	1
   505  0000CC                     _lcd_temp:
   506                           	opt stack 0
   507  0000CC                     	ds	1
   508  0000CD                     	ds	1
   509  0000CE                     	ds	1
   510                           tblptru	equ	0xFF8
   511                           tblptrh	equ	0xFF7
   512                           tblptrl	equ	0xFF6
   513                           tablat	equ	0xFF5
   514                           postinc0	equ	0xFEE
   515                           wreg	equ	0xFE8
   516                           postdec1	equ	0xFE5
   517                           fsr1l	equ	0xFE1
   518                           
   519                           	psect	bssBANK1
   520  000100                     __pbssBANK1:
   521                           	opt stack 0
   522  000100                     _uart1_rxbuf:
   523                           	opt stack 0
   524  000100                     	ds	96
   525  000160                     _uart2_rxbuf:
   526                           	opt stack 0
   527  000160                     	ds	96
   528                           tblptru	equ	0xFF8
   529                           tblptrh	equ	0xFF7
   530                           tblptrl	equ	0xFF6
   531                           tablat	equ	0xFF5
   532                           postinc0	equ	0xFEE
   533                           wreg	equ	0xFE8
   534                           postdec1	equ	0xFE5
   535                           fsr1l	equ	0xFE1
   536                           
   537                           	psect	cstackBANK0
   538  0000CF                     __pcstackBANK0:
   539                           	opt stack 0
   540  0000CF                     lcd_print@str:
   541                           	opt stack 0
   542  0000CF                     ___lldiv@quotient:
   543                           	opt stack 0
   544                           
   545                           ; 4 bytes @ 0x0
   546  0000CF                     	ds	4
   547  0000D3                     ___lldiv@counter:
   548                           	opt stack 0
   549                           
   550                           ; 1 bytes @ 0x4
   551  0000D3                     	ds	1
   552  0000D4                     i2c_init@c:
   553                           	opt stack 0
   554                           
   555                           ; 4 bytes @ 0x5
   556  0000D4                     	ds	4
   557  0000D8                     ??_i2c_init:
   558                           
   559                           ; 0 bytes @ 0x9
   560  0000D8                     	ds	8
   561  0000E0                     lcd_init_i2c@lcd_cols:
   562                           	opt stack 0
   563                           
   564                           ; 1 bytes @ 0x11
   565  0000E0                     	ds	1
   566  0000E1                     lcd_init_i2c@lcd_rows:
   567                           	opt stack 0
   568                           
   569                           ; 1 bytes @ 0x12
   570  0000E1                     	ds	1
   571                           tblptru	equ	0xFF8
   572                           tblptrh	equ	0xFF7
   573                           tblptrl	equ	0xFF6
   574                           tablat	equ	0xFF5
   575                           postinc0	equ	0xFEE
   576                           wreg	equ	0xFE8
   577                           postdec1	equ	0xFE5
   578                           fsr1l	equ	0xFE1
   579                           
   580                           	psect	cstackCOMRAM
   581  00002F                     __pcstackCOMRAM:
   582                           	opt stack 0
   583  00002F                     ??_InterruptHandlerHigh:
   584  00002F                     
   585                           ; 0 bytes @ 0x0
   586  00002F                     	ds	14
   587  00003D                     InterruptHandlerHigh@dd:
   588                           	opt stack 0
   589                           
   590                           ; 2 bytes @ 0xE
   591  00003D                     	ds	2
   592  00003F                     InterruptHandlerHigh@i:
   593                           	opt stack 0
   594                           
   595                           ; 1 bytes @ 0x10
   596  00003F                     	ds	1
   597  000040                     ??_analogInput:
   598  000040                     ??_i2c_idle:
   599  000040                     ?___lldiv:
   600                           	opt stack 0
   601  000040                     init@i:
   602                           	opt stack 0
   603  000040                     digitalWrite@value:
   604                           	opt stack 0
   605  000040                     delay@ms:
   606                           	opt stack 0
   607  000040                     lcdDelay@ms:
   608                           	opt stack 0
   609  000040                     ___lldiv@dividend:
   610                           	opt stack 0
   611                           
   612                           ; 4 bytes @ 0x11
   613  000040                     	ds	1
   614  000041                     digitalWrite@pin:
   615                           	opt stack 0
   616  000041                     i2c_out@data:
   617                           	opt stack 0
   618                           
   619                           ; 1 bytes @ 0x12
   620  000041                     	ds	1
   621  000042                     analogInput@ANx:
   622                           	opt stack 0
   623  000042                     lcd_nibble@nd:
   624                           	opt stack 0
   625  000042                     i2c_out@slave_address:
   626                           	opt stack 0
   627  000042                     delay@i:
   628                           	opt stack 0
   629  000042                     lcdDelay@i:
   630                           	opt stack 0
   631                           
   632                           ; 2 bytes @ 0x13
   633  000042                     	ds	1
   634  000043                     analogInput@d:
   635                           	opt stack 0
   636  000043                     e_pulse@k:
   637                           	opt stack 0
   638                           
   639                           ; 1 bytes @ 0x14
   640  000043                     	ds	1
   641  000044                     pinMode@mode:
   642                           	opt stack 0
   643  000044                     e_pulse@dd:
   644                           	opt stack 0
   645  000044                     ___lldiv@divisor:
   646                           	opt stack 0
   647                           
   648                           ; 4 bytes @ 0x15
   649  000044                     	ds	1
   650  000045                     pinMode@pin:
   651                           	opt stack 0
   652  000045                     lcd_putdata@dd:
   653                           	opt stack 0
   654                           
   655                           ; 1 bytes @ 0x16
   656  000045                     	ds	1
   657  000046                     lcd_putdata@d:
   658                           	opt stack 0
   659                           
   660                           ; 1 bytes @ 0x17
   661  000046                     	ds	1
   662  000047                     lcd_setCursor@row:
   663                           	opt stack 0
   664  000047                     lcd_putc@i:
   665                           	opt stack 0
   666  000047                     lcd_begin@lcd_rows:
   667                           	opt stack 0
   668                           
   669                           ; 1 bytes @ 0x18
   670  000047                     	ds	1
   671  000048                     lcd_setCursor@col:
   672                           	opt stack 0
   673  000048                     lcd_putc@d:
   674                           	opt stack 0
   675  000048                     lcd_begin@lcd_cols:
   676                           	opt stack 0
   677                           
   678                           ; 1 bytes @ 0x19
   679  000048                     	ds	1
   680  000049                     lcd_putc@dd:
   681                           	opt stack 0
   682  000049                     lcd_begin@d:
   683                           	opt stack 0
   684                           
   685                           ; 1 bytes @ 0x1A
   686  000049                     	ds	1
   687  00004A                     lcd_init_i2c@lcd_Addr:
   688                           	opt stack 0
   689                           
   690                           ; 1 bytes @ 0x1B
   691  00004A                     	ds	1
   692  00004B                     tblptru	equ	0xFF8
   693                           tblptrh	equ	0xFF7
   694                           tblptrl	equ	0xFF6
   695                           tablat	equ	0xFF5
   696                           postinc0	equ	0xFEE
   697                           wreg	equ	0xFE8
   698                           postdec1	equ	0xFE5
   699                           fsr1l	equ	0xFE1
   700                           
   701                           ; 0 bytes @ 0x1C
   702 ;;
   703 ;;Main: autosize = 0, tempsize = 0, incstack = 0, save=0
   704 ;;
   705 ;; *************** function _main *****************
   706 ;; Defined at:
   707 ;;		line 447 in file "../../picuno/picuno.c"
   708 ;; Parameters:    Size  Location     Type
   709 ;;		None
   710 ;; Auto vars:     Size  Location     Type
   711 ;;		None
   712 ;; Return value:  Size  Location     Type
   713 ;;		None               void
   714 ;; Registers used:
   715 ;;		wreg, fsr2l, fsr2h, status,2, status,0, tblptrl, tblptrh, tblptru, prodl, prodh, cstack
   716 ;; Tracked objects:
   717 ;;		On entry : 0/0
   718 ;;		On exit  : 0/0
   719 ;;		Unchanged: 0/0
   720 ;; Data sizes:     COMRAM   BANK0   BANK1   BANK2   BANK3   BANK4   BANK5
   721 ;;      Params:         0       0       0       0       0       0       0
   722 ;;      Locals:         0       0       0       0       0       0       0
   723 ;;      Temps:          0       0       0       0       0       0       0
   724 ;;      Totals:         0       0       0       0       0       0       0
   725 ;;Total ram usage:        0 bytes
   726 ;; Hardware stack levels required when called:   10
   727 ;; This function calls:
   728 ;;		_init
   729 ;;		_loop
   730 ;;		_setup
   731 ;;		_sync
   732 ;;		_task
   733 ;; This function is called by:
   734 ;;		Startup code after reset
   735 ;; This function uses a non-reentrant model
   736 ;;
   737                           
   738                           	psect	text0
   739  00157E                     __ptext0:
   740                           	opt stack 0
   741  00157E                     _main:
   742                           	opt stack 21
   743                           
   744                           ;picuno.c: 449: init();
   745                           
   746                           ;incstack = 0
   747  00157E  EC9D  F008         	call	_init	;wreg free
   748                           
   749                           ;picuno.c: 450: setup();
   750  001582  EC50  F00A         	call	_setup	;wreg free
   751  001586                     l477:
   752  001586  0004               	clrwdt		;# 
   753                           
   754                           ;picuno.c: 454: sync();
   755  001588  ECCB  F00A         	call	_sync	;wreg free
   756                           
   757                           ;picuno.c: 455: loop();
   758  00158C  ECE0  F00A         	call	_loop	;wreg free
   759                           
   760                           ;picuno.c: 456: task();
   761  001590  ECDF  F00A         	call	_task	;wreg free
   762  001594  D7F8               	goto	l477
   763  001596                     __end_of_main:
   764                           	opt stack 0
   765                           tblptru	equ	0xFF8
   766                           tblptrh	equ	0xFF7
   767                           tblptrl	equ	0xFF6
   768                           tablat	equ	0xFF5
   769                           postinc0	equ	0xFEE
   770                           wreg	equ	0xFE8
   771                           postdec1	equ	0xFE5
   772                           fsr1l	equ	0xFE1
   773                           
   774 ;; *************** function _task *****************
   775 ;; Defined at:
   776 ;;		line 419 in file "../../picuno/picuno.c"
   777 ;; Parameters:    Size  Location     Type
   778 ;;		None
   779 ;; Auto vars:     Size  Location     Type
   780 ;;		None
   781 ;; Return value:  Size  Location     Type
   782 ;;		None               void
   783 ;; Registers used:
   784 ;;		None
   785 ;; Tracked objects:
   786 ;;		On entry : 0/0
   787 ;;		On exit  : 0/0
   788 ;;		Unchanged: 0/0
   789 ;; Data sizes:     COMRAM   BANK0   BANK1   BANK2   BANK3   BANK4   BANK5
   790 ;;      Params:         0       0       0       0       0       0       0
   791 ;;      Locals:         0       0       0       0       0       0       0
   792 ;;      Temps:          0       0       0       0       0       0       0
   793 ;;      Totals:         0       0       0       0       0       0       0
   794 ;;Total ram usage:        0 bytes
   795 ;; Hardware stack levels used:    1
   796 ;; Hardware stack levels required when called:    3
   797 ;; This function calls:
   798 ;;		Nothing
   799 ;; This function is called by:
   800 ;;		_main
   801 ;; This function uses a non-reentrant model
   802 ;;
   803                           
   804                           	psect	text1
   805  0015BE                     __ptext1:
   806                           	opt stack 0
   807  0015BE                     _task:
   808                           	opt stack 27
   809                           
   810                           ;incstack = 0
   811  0015BE  0012               	return	
   812  0015C0                     __end_of_task:
   813                           	opt stack 0
   814                           tblptru	equ	0xFF8
   815                           tblptrh	equ	0xFF7
   816                           tblptrl	equ	0xFF6
   817                           tablat	equ	0xFF5
   818                           postinc0	equ	0xFEE
   819                           wreg	equ	0xFE8
   820                           postdec1	equ	0xFE5
   821                           fsr1l	equ	0xFE1
   822                           
   823 ;; *************** function _sync *****************
   824 ;; Defined at:
   825 ;;		line 280 in file "../../picuno/picuno.c"
   826 ;; Parameters:    Size  Location     Type
   827 ;;		None
   828 ;; Auto vars:     Size  Location     Type
   829 ;;		None
   830 ;; Return value:  Size  Location     Type
   831 ;;		None               void
   832 ;; Registers used:
   833 ;;		None
   834 ;; Tracked objects:
   835 ;;		On entry : 0/0
   836 ;;		On exit  : 0/0
   837 ;;		Unchanged: 0/0
   838 ;; Data sizes:     COMRAM   BANK0   BANK1   BANK2   BANK3   BANK4   BANK5
   839 ;;      Params:         0       0       0       0       0       0       0
   840 ;;      Locals:         0       0       0       0       0       0       0
   841 ;;      Temps:          0       0       0       0       0       0       0
   842 ;;      Totals:         0       0       0       0       0       0       0
   843 ;;Total ram usage:        0 bytes
   844 ;; Hardware stack levels used:    1
   845 ;; Hardware stack levels required when called:    3
   846 ;; This function calls:
   847 ;;		Nothing
   848 ;; This function is called by:
   849 ;;		_main
   850 ;; This function uses a non-reentrant model
   851 ;;
   852                           
   853                           	psect	text2
   854  001596                     __ptext2:
   855                           	opt stack 0
   856  001596                     _sync:
   857                           	opt stack 27
   858                           
   859                           ;picuno.c: 283: Flags.Bit.bit7 = 0;
   860                           
   861                           ;incstack = 0
   862  001596  9E01               	bcf	_Flags,7,c
   863                           
   864                           ;picuno.c: 284: if(Flags.Bit.bit0)
   865  001598  A001               	btfss	_Flags,0,c
   866  00159A  0012               	return	
   867                           
   868                           ;picuno.c: 285: {
   869                           ;picuno.c: 286: Flags.Bit.bit0 = 0;
   870  00159C  9001               	bcf	_Flags,0,c
   871                           
   872                           ;picuno.c: 287: Flags.Bit.bit7 = 1;
   873  00159E  8E01               	bsf	_Flags,7,c
   874  0015A0  0012               	return	
   875  0015A2                     __end_of_sync:
   876                           	opt stack 0
   877                           tblptru	equ	0xFF8
   878                           tblptrh	equ	0xFF7
   879                           tblptrl	equ	0xFF6
   880                           tablat	equ	0xFF5
   881                           postinc0	equ	0xFEE
   882                           wreg	equ	0xFE8
   883                           postdec1	equ	0xFE5
   884                           fsr1l	equ	0xFE1
   885                           
   886 ;; *************** function _setup *****************
   887 ;; Defined at:
   888 ;;		line 3 in file "example_helloWorld.c"
   889 ;; Parameters:    Size  Location     Type
   890 ;;		None
   891 ;; Auto vars:     Size  Location     Type
   892 ;;		None
   893 ;; Return value:  Size  Location     Type
   894 ;;		None               void
   895 ;; Registers used:
   896 ;;		wreg, status,2, status,0, tblptrl, tblptrh, tblptru, prodl, prodh, cstack
   897 ;; Tracked objects:
   898 ;;		On entry : 0/0
   899 ;;		On exit  : 0/0
   900 ;;		Unchanged: 0/0
   901 ;; Data sizes:     COMRAM   BANK0   BANK1   BANK2   BANK3   BANK4   BANK5
   902 ;;      Params:         0       0       0       0       0       0       0
   903 ;;      Locals:         0       0       0       0       0       0       0
   904 ;;      Temps:          0       0       0       0       0       0       0
   905 ;;      Totals:         0       0       0       0       0       0       0
   906 ;;Total ram usage:        0 bytes
   907 ;; Hardware stack levels used:    1
   908 ;; Hardware stack levels required when called:    9
   909 ;; This function calls:
   910 ;;		_lcd_init_i2c
   911 ;;		_lcd_print
   912 ;;		_lcd_setCursor
   913 ;; This function is called by:
   914 ;;		_main
   915 ;; This function uses a non-reentrant model
   916 ;;
   917                           
   918                           	psect	text3
   919  0014A0                     __ptext3:
   920                           	opt stack 0
   921  0014A0                     _setup:
   922                           	opt stack 21
   923                           
   924                           ;example_helloWorld.c: 4: lcd_init_i2c(0x27,16,2);
   925                           
   926                           ;incstack = 0
   927  0014A0  0E10               	movlw	16
   928  0014A2  0100               	movlb	0	; () banked
   929  0014A4  6FE0               	movwf	lcd_init_i2c@lcd_cols& (0+255),b
   930  0014A6  0E02               	movlw	2
   931  0014A8  0100               	movlb	0	; () banked
   932  0014AA  6FE1               	movwf	lcd_init_i2c@lcd_rows& (0+255),b
   933  0014AC  0E27               	movlw	39
   934  0014AE  EC00  F00A         	call	_lcd_init_i2c
   935                           
   936                           ;example_helloWorld.c: 5: lcd_setCursor(0,0);
   937  0014B2  0E00               	movlw	0
   938  0014B4  6E47               	movwf	lcd_setCursor@row,c
   939  0014B6  0E00               	movlw	0
   940  0014B8  ECA3  F00A         	call	_lcd_setCursor
   941                           
   942                           ;example_helloWorld.c: 6: lcd_print("Hello World");
   943  0014BC  0E06               	movlw	high STR_1
   944  0014BE  0100               	movlb	0	; () banked
   945  0014C0  6FD0               	movwf	(lcd_print@str+1)& (0+255),b
   946  0014C2  0E01               	movlw	low STR_1
   947  0014C4  0100               	movlb	0	; () banked
   948  0014C6  6FCF               	movwf	lcd_print@str& (0+255),b
   949  0014C8  EC1E  F00A         	call	_lcd_print	;wreg free
   950  0014CC  0012               	return	
   951  0014CE                     __end_of_setup:
   952                           	opt stack 0
   953                           tblptru	equ	0xFF8
   954                           tblptrh	equ	0xFF7
   955                           tblptrl	equ	0xFF6
   956                           tablat	equ	0xFF5
   957                           postinc0	equ	0xFEE
   958                           wreg	equ	0xFE8
   959                           postdec1	equ	0xFE5
   960                           fsr1l	equ	0xFE1
   961                           
   962 ;; *************** function _lcd_setCursor *****************
   963 ;; Defined at:
   964 ;;		line 1836 in file "../../picuno/picuno.c"
   965 ;; Parameters:    Size  Location     Type
   966 ;;  col             1    wreg     unsigned char 
   967 ;;  row             1   24[COMRAM] unsigned char 
   968 ;; Auto vars:     Size  Location     Type
   969 ;;  col             1   25[COMRAM] unsigned char 
   970 ;; Return value:  Size  Location     Type
   971 ;;		None               void
   972 ;; Registers used:
   973 ;;		wreg, status,2, status,0, prodl, prodh, cstack
   974 ;; Tracked objects:
   975 ;;		On entry : 0/0
   976 ;;		On exit  : 0/0
   977 ;;		Unchanged: 0/0
   978 ;; Data sizes:     COMRAM   BANK0   BANK1   BANK2   BANK3   BANK4   BANK5
   979 ;;      Params:         1       0       0       0       0       0       0
   980 ;;      Locals:         1       0       0       0       0       0       0
   981 ;;      Temps:          0       0       0       0       0       0       0
   982 ;;      Totals:         2       0       0       0       0       0       0
   983 ;;Total ram usage:        2 bytes
   984 ;; Hardware stack levels used:    1
   985 ;; Hardware stack levels required when called:    7
   986 ;; This function calls:
   987 ;;		_lcdDelay
   988 ;;		_lcd_putdata
   989 ;; This function is called by:
   990 ;;		_setup
   991 ;; This function uses a non-reentrant model
   992 ;;
   993                           
   994                           	psect	text4
   995  001546                     __ptext4:
   996                           	opt stack 0
   997  001546                     _lcd_setCursor:
   998                           	opt stack 22
   999                           
  1000                           ;incstack = 0
  1001                           ;lcd_setCursor@col stored from wreg
  1002  001546  6E48               	movwf	lcd_setCursor@col,c
  1003  001548  5047               	movf	lcd_setCursor@row,w,c
  1004  00154A  0D40               	mullw	64
  1005  00154C  50F3               	movf	prodl,w,c
  1006  00154E  2448               	addwf	lcd_setCursor@col,w,c
  1007  001550  0F80               	addlw	128
  1008  001552  ECAE  F007         	call	_lcd_putdata
  1009  001556  0E00               	movlw	0
  1010  001558  6E41               	movwf	lcdDelay@ms+1,c
  1011  00155A  0E01               	movlw	1
  1012  00155C  6E40               	movwf	lcdDelay@ms,c
  1013  00155E  EC7D  F00A         	call	_lcdDelay	;wreg free
  1014  001562  0012               	return	
  1015  001564                     __end_of_lcd_setCursor:
  1016                           	opt stack 0
  1017                           tblptru	equ	0xFF8
  1018                           tblptrh	equ	0xFF7
  1019                           tblptrl	equ	0xFF6
  1020                           tablat	equ	0xFF5
  1021                           prodl	equ	0xFF3
  1022                           postinc0	equ	0xFEE
  1023                           wreg	equ	0xFE8
  1024                           postdec1	equ	0xFE5
  1025                           fsr1l	equ	0xFE1
  1026                           
  1027 ;; *************** function _lcd_print *****************
  1028 ;; Defined at:
  1029 ;;		line 1921 in file "../../picuno/picuno.c"
  1030 ;; Parameters:    Size  Location     Type
  1031 ;;  str             2    0[BANK0 ] PTR const unsigned char 
  1032 ;;		 -> STR_1(12), 
  1033 ;; Auto vars:     Size  Location     Type
  1034 ;;		None
  1035 ;; Return value:  Size  Location     Type
  1036 ;;		None               void
  1037 ;; Registers used:
  1038 ;;		wreg, status,2, status,0, tblptrl, tblptrh, tblptru, cstack
  1039 ;; Tracked objects:
  1040 ;;		On entry : 0/0
  1041 ;;		On exit  : 0/0
  1042 ;;		Unchanged: 0/0
  1043 ;; Data sizes:     COMRAM   BANK0   BANK1   BANK2   BANK3   BANK4   BANK5
  1044 ;;      Params:         0       2       0       0       0       0       0
  1045 ;;      Locals:         0       0       0       0       0       0       0
  1046 ;;      Temps:          0       0       0       0       0       0       0
  1047 ;;      Totals:         0       2       0       0       0       0       0
  1048 ;;Total ram usage:        2 bytes
  1049 ;; Hardware stack levels used:    1
  1050 ;; Hardware stack levels required when called:    8
  1051 ;; This function calls:
  1052 ;;		_lcd_putc
  1053 ;; This function is called by:
  1054 ;;		_setup
  1055 ;; This function uses a non-reentrant model
  1056 ;;
  1057                           
  1058                           	psect	text5
  1059  00143C                     __ptext5:
  1060                           	opt stack 0
  1061  00143C                     _lcd_print:
  1062                           	opt stack 21
  1063                           
  1064                           ;picuno.c: 1923: while(*str){
  1065                           
  1066                           ;incstack = 0
  1067  00143C  D00D               	goto	l5743
  1068  00143E                     l5739:
  1069                           
  1070                           ;picuno.c: 1924: lcd_putc(*str);
  1071  00143E  0100               	movlb	0	; () banked
  1072  001440  C0CF  FFF6         	movff	lcd_print@str,tblptrl
  1073  001444  0100               	movlb	0	; () banked
  1074  001446  C0D0  FFF7         	movff	lcd_print@str+1,tblptrh
  1075  00144A                     	if	0	;tblptru may be non-zero
  1076  00144A                     	endif
  1077  00144A                     	if	0	;tblptru may be non-zero
  1078  00144A                     	endif
  1079  00144A  0008               	tblrd		*
  1080  00144C  50F5               	movf	tablat,w,c
  1081  00144E  EC76  F009         	call	_lcd_putc
  1082                           
  1083                           ;picuno.c: 1925: str++;
  1084  001452  0100               	movlb	0	; () banked
  1085  001454  4BCF               	infsnz	lcd_print@str& (0+255),f,b
  1086  001456  2BD0               	incf	(lcd_print@str+1)& (0+255),f,b
  1087  001458                     l5743:
  1088  001458  0100               	movlb	0	; () banked
  1089  00145A  C0CF  FFF6         	movff	lcd_print@str,tblptrl
  1090  00145E  0100               	movlb	0	; () banked
  1091  001460  C0D0  FFF7         	movff	lcd_print@str+1,tblptrh
  1092  001464                     	if	0	;tblptru may be non-zero
  1093  001464                     	endif
  1094  001464                     	if	0	;tblptru may be non-zero
  1095  001464                     	endif
  1096  001464  0008               	tblrd		*
  1097  001466  50F5               	movf	tablat,w,c
  1098  001468  0900               	iorlw	0
  1099  00146A  B4D8               	btfsc	status,2,c
  1100                           
  1101                           ; BSR set to: 0
  1102                           
  1103                           ; BSR set to: 0
  1104  00146C  0012               	return	
  1105  00146E  D7E7               	goto	l5739
  1106  001470                     __end_of_lcd_print:
  1107                           	opt stack 0
  1108                           tblptru	equ	0xFF8
  1109                           tblptrh	equ	0xFF7
  1110                           tblptrl	equ	0xFF6
  1111                           tablat	equ	0xFF5
  1112                           prodl	equ	0xFF3
  1113                           postinc0	equ	0xFEE
  1114                           wreg	equ	0xFE8
  1115                           postdec1	equ	0xFE5
  1116                           fsr1l	equ	0xFE1
  1117                           status	equ	0xFD8
  1118                           
  1119 ;; *************** function _lcd_putc *****************
  1120 ;; Defined at:
  1121 ;;		line 1847 in file "../../picuno/picuno.c"
  1122 ;; Parameters:    Size  Location     Type
  1123 ;;  d               1    wreg     unsigned char 
  1124 ;; Auto vars:     Size  Location     Type
  1125 ;;  d               1   25[COMRAM] unsigned char 
  1126 ;;  dd              1   26[COMRAM] unsigned char 
  1127 ;;  i               1   24[COMRAM] unsigned char 
  1128 ;; Return value:  Size  Location     Type
  1129 ;;		None               void
  1130 ;; Registers used:
  1131 ;;		wreg, status,2, status,0, cstack
  1132 ;; Tracked objects:
  1133 ;;		On entry : 0/0
  1134 ;;		On exit  : 0/0
  1135 ;;		Unchanged: 0/0
  1136 ;; Data sizes:     COMRAM   BANK0   BANK1   BANK2   BANK3   BANK4   BANK5
  1137 ;;      Params:         0       0       0       0       0       0       0
  1138 ;;      Locals:         3       0       0       0       0       0       0
  1139 ;;      Temps:          0       0       0       0       0       0       0
  1140 ;;      Totals:         3       0       0       0       0       0       0
  1141 ;;Total ram usage:        3 bytes
  1142 ;; Hardware stack levels used:    1
  1143 ;; Hardware stack levels required when called:    7
  1144 ;; This function calls:
  1145 ;;		_digitalWrite
  1146 ;;		_e_pulse
  1147 ;;		_i2c_out
  1148 ;;		_lcd_putdata
  1149 ;; This function is called by:
  1150 ;;		_lcd_print
  1151 ;;		_lcd_putb
  1152 ;;		_lcd_puth
  1153 ;;		_lcd_puti
  1154 ;;		_lcd_write
  1155 ;; This function uses a non-reentrant model
  1156 ;;
  1157                           
  1158                           	psect	text6
  1159  0012EC                     __ptext6:
  1160                           	opt stack 0
  1161  0012EC                     _lcd_putc:
  1162                           	opt stack 21
  1163                           
  1164                           ; BSR set to: 0
  1165                           ;incstack = 0
  1166                           ;lcd_putc@d stored from wreg
  1167  0012EC  6E48               	movwf	lcd_putc@d,c
  1168                           
  1169                           ;picuno.c: 1849: byte i,dd;
  1170                           ;picuno.c: 1850: if(lcd_mode == 2)
  1171  0012EE  501A               	movf	_lcd_mode,w,c
  1172  0012F0  0A02               	xorlw	2
  1173  0012F2  A4D8               	btfss	status,2,c
  1174  0012F4  D020               	goto	l4467
  1175                           
  1176                           ;picuno.c: 1851: {
  1177                           ;picuno.c: 1852: dd = (d&0xF0)|0x09;
  1178  0012F6  5048               	movf	lcd_putc@d,w,c
  1179  0012F8  0BF0               	andlw	240
  1180  0012FA  0909               	iorlw	9
  1181  0012FC  6E49               	movwf	lcd_putc@dd,c
  1182                           
  1183                           ;picuno.c: 1853: i2c_out(_Addr,dd);
  1184  0012FE  C049  F041         	movff	lcd_putc@dd,i2c_out@data
  1185  001302  5006               	movf	__Addr,w,c
  1186  001304  ECAF  F009         	call	_i2c_out
  1187                           
  1188                           ;picuno.c: 1854: e_pulse(dd);
  1189  001308  5049               	movf	lcd_putc@dd,w,c
  1190  00130A  EC38  F00A         	call	_e_pulse
  1191                           
  1192                           ;picuno.c: 1855: dd = ((d<<4)&0xf0) | 0x09;
  1193  00130E  3848               	swapf	lcd_putc@d,w,c
  1194  001310  0BF0               	andlw	240
  1195  001312  0BF0               	andlw	240
  1196  001314  0909               	iorlw	9
  1197  001316  6E49               	movwf	lcd_putc@dd,c
  1198                           
  1199                           ;picuno.c: 1856: i2c_out(_Addr,dd);
  1200  001318  C049  F041         	movff	lcd_putc@dd,i2c_out@data
  1201  00131C  5006               	movf	__Addr,w,c
  1202  00131E  ECAF  F009         	call	_i2c_out
  1203                           
  1204                           ;picuno.c: 1857: e_pulse(dd);
  1205  001322  5049               	movf	lcd_putc@dd,w,c
  1206  001324  EC38  F00A         	call	_e_pulse
  1207                           
  1208                           ;picuno.c: 1858: dd &= 0b11111110;
  1209  001328  9049               	bcf	lcd_putc@dd,0,c
  1210                           
  1211                           ;picuno.c: 1859: i2c_out(_Addr,dd);
  1212  00132A  C049  F041         	movff	lcd_putc@dd,i2c_out@data
  1213  00132E  5006               	movf	__Addr,w,c
  1214  001330  ECAF  F009         	call	_i2c_out
  1215                           
  1216                           ;picuno.c: 1860: }
  1217  001334  0012               	return	
  1218  001336                     l4467:
  1219                           
  1220                           ;picuno.c: 1861: else{
  1221                           ;picuno.c: 1863: digitalWrite(lcd_rs,1);
  1222  001336  0E01               	movlw	1
  1223  001338  6E40               	movwf	digitalWrite@value,c
  1224  00133A  501B               	movf	_lcd_rs,w,c
  1225  00133C  ECAE  F005         	call	_digitalWrite
  1226                           
  1227                           ;picuno.c: 1864: lcd_putdata(d);
  1228  001340  5048               	movf	lcd_putc@d,w,c
  1229  001342  ECAE  F007         	call	_lcd_putdata
  1230                           
  1231                           ;picuno.c: 1865: digitalWrite(lcd_rs,0);
  1232  001346  0E00               	movlw	0
  1233  001348  6E40               	movwf	digitalWrite@value,c
  1234  00134A  501B               	movf	_lcd_rs,w,c
  1235  00134C  ECAE  F005         	call	_digitalWrite
  1236                           
  1237                           ;picuno.c: 1868: i=140; while(i) i--;
  1238  001350  0E8C               	movlw	140
  1239  001352  6E47               	movwf	lcd_putc@i,c
  1240  001354  D001               	goto	l4473
  1241  001356                     l4471:
  1242  001356  0647               	decf	lcd_putc@i,f,c
  1243  001358                     l4473:
  1244  001358  6647               	tstfsz	lcd_putc@i,c
  1245  00135A  D7FD               	goto	l4471
  1246  00135C  0012               	return	
  1247  00135E                     __end_of_lcd_putc:
  1248                           	opt stack 0
  1249                           tblptru	equ	0xFF8
  1250                           tblptrh	equ	0xFF7
  1251                           tblptrl	equ	0xFF6
  1252                           tablat	equ	0xFF5
  1253                           prodl	equ	0xFF3
  1254                           postinc0	equ	0xFEE
  1255                           wreg	equ	0xFE8
  1256                           postdec1	equ	0xFE5
  1257                           fsr1l	equ	0xFE1
  1258                           status	equ	0xFD8
  1259                           
  1260 ;; *************** function _lcd_init_i2c *****************
  1261 ;; Defined at:
  1262 ;;		line 1966 in file "../../picuno/picuno.c"
  1263 ;; Parameters:    Size  Location     Type
  1264 ;;  lcd_Addr        1    wreg     unsigned char 
  1265 ;;  lcd_cols        1   17[BANK0 ] unsigned char 
  1266 ;;  lcd_rows        1   18[BANK0 ] unsigned char 
  1267 ;; Auto vars:     Size  Location     Type
  1268 ;;  lcd_Addr        1   27[COMRAM] unsigned char 
  1269 ;; Return value:  Size  Location     Type
  1270 ;;		None               void
  1271 ;; Registers used:
  1272 ;;		wreg, status,2, status,0, cstack
  1273 ;; Tracked objects:
  1274 ;;		On entry : 0/0
  1275 ;;		On exit  : 0/0
  1276 ;;		Unchanged: 0/0
  1277 ;; Data sizes:     COMRAM   BANK0   BANK1   BANK2   BANK3   BANK4   BANK5
  1278 ;;      Params:         0       2       0       0       0       0       0
  1279 ;;      Locals:         1       0       0       0       0       0       0
  1280 ;;      Temps:          0       0       0       0       0       0       0
  1281 ;;      Totals:         1       2       0       0       0       0       0
  1282 ;;Total ram usage:        3 bytes
  1283 ;; Hardware stack levels used:    1
  1284 ;; Hardware stack levels required when called:    8
  1285 ;; This function calls:
  1286 ;;		_i2c_init
  1287 ;;		_lcd_begin
  1288 ;; This function is called by:
  1289 ;;		_setup
  1290 ;; This function uses a non-reentrant model
  1291 ;;
  1292                           
  1293                           	psect	text7
  1294  001400                     __ptext7:
  1295                           	opt stack 0
  1296  001400                     _lcd_init_i2c:
  1297                           	opt stack 21
  1298                           
  1299                           ;incstack = 0
  1300                           ;lcd_init_i2c@lcd_Addr stored from wreg
  1301  001400  6E4A               	movwf	lcd_init_i2c@lcd_Addr,c
  1302                           
  1303                           ;picuno.c: 1968: lcd_mode = 2;
  1304  001402  0E02               	movlw	2
  1305  001404  6E1A               	movwf	_lcd_mode,c
  1306                           
  1307                           ;picuno.c: 1969: i2c_init(100000);
  1308  001406  0EA0               	movlw	160
  1309  001408  0100               	movlb	0	; () banked
  1310  00140A  6FD4               	movwf	i2c_init@c& (0+255),b
  1311  00140C  0E86               	movlw	134
  1312  00140E  0100               	movlb	0	; () banked
  1313  001410  6FD5               	movwf	(i2c_init@c+1)& (0+255),b
  1314  001412  0E01               	movlw	1
  1315  001414  0100               	movlb	0	; () banked
  1316  001416  6FD6               	movwf	(i2c_init@c+2)& (0+255),b
  1317  001418  0E00               	movlw	0
  1318  00141A  0100               	movlb	0	; () banked
  1319  00141C  6FD7               	movwf	(i2c_init@c+3)& (0+255),b
  1320  00141E  ECEA  F008         	call	_i2c_init	;wreg free
  1321                           
  1322                           ;picuno.c: 1970: _Addr = lcd_Addr;
  1323  001422  C04A  F006         	movff	lcd_init_i2c@lcd_Addr,__Addr
  1324                           
  1325                           ;picuno.c: 1971: _cols = lcd_cols;
  1326  001426  C0E0  F0C7         	movff	lcd_init_i2c@lcd_cols,__cols
  1327                           
  1328                           ;picuno.c: 1972: _rows = lcd_rows;
  1329  00142A  C0E1  F0C8         	movff	lcd_init_i2c@lcd_rows,__rows
  1330                           
  1331                           ;picuno.c: 1973: lcd_begin(lcd_cols,lcd_rows);
  1332  00142E  C0E1  F047         	movff	lcd_init_i2c@lcd_rows,lcd_begin@lcd_rows
  1333  001432  0100               	movlb	0	; () banked
  1334  001434  51E0               	movf	lcd_init_i2c@lcd_cols& (0+255),w,b
  1335  001436  ECED  F006         	call	_lcd_begin
  1336  00143A  0012               	return	
  1337  00143C                     __end_of_lcd_init_i2c:
  1338                           	opt stack 0
  1339                           tblptru	equ	0xFF8
  1340                           tblptrh	equ	0xFF7
  1341                           tblptrl	equ	0xFF6
  1342                           tablat	equ	0xFF5
  1343                           prodl	equ	0xFF3
  1344                           postinc0	equ	0xFEE
  1345                           wreg	equ	0xFE8
  1346                           postdec1	equ	0xFE5
  1347                           fsr1l	equ	0xFE1
  1348                           status	equ	0xFD8
  1349                           
  1350 ;; *************** function _lcd_begin *****************
  1351 ;; Defined at:
  1352 ;;		line 1976 in file "../../picuno/picuno.c"
  1353 ;; Parameters:    Size  Location     Type
  1354 ;;  lcd_cols        1    wreg     unsigned char 
  1355 ;;  lcd_rows        1   24[COMRAM] unsigned char 
  1356 ;; Auto vars:     Size  Location     Type
  1357 ;;  lcd_cols        1   25[COMRAM] unsigned char 
  1358 ;;  d               1   26[COMRAM] unsigned char 
  1359 ;;  i               1    0        unsigned char 
  1360 ;; Return value:  Size  Location     Type
  1361 ;;		None               void
  1362 ;; Registers used:
  1363 ;;		wreg, status,2, status,0, cstack
  1364 ;; Tracked objects:
  1365 ;;		On entry : 0/0
  1366 ;;		On exit  : 0/0
  1367 ;;		Unchanged: 0/0
  1368 ;; Data sizes:     COMRAM   BANK0   BANK1   BANK2   BANK3   BANK4   BANK5
  1369 ;;      Params:         1       0       0       0       0       0       0
  1370 ;;      Locals:         2       0       0       0       0       0       0
  1371 ;;      Temps:          0       0       0       0       0       0       0
  1372 ;;      Totals:         3       0       0       0       0       0       0
  1373 ;;Total ram usage:        3 bytes
  1374 ;; Hardware stack levels used:    1
  1375 ;; Hardware stack levels required when called:    7
  1376 ;; This function calls:
  1377 ;;		_delay
  1378 ;;		_e_pulse
  1379 ;;		_i2c_out
  1380 ;;		_lcdDelay
  1381 ;;		_lcd_nibble
  1382 ;;		_lcd_putdata
  1383 ;; This function is called by:
  1384 ;;		_lcd_init_i2c
  1385 ;; This function uses a non-reentrant model
  1386 ;;
  1387                           
  1388                           	psect	text8
  1389  000DDA                     __ptext8:
  1390                           	opt stack 0
  1391  000DDA                     _lcd_begin:
  1392                           	opt stack 21
  1393                           
  1394                           ;incstack = 0
  1395                           ;lcd_begin@lcd_cols stored from wreg
  1396  000DDA  6E48               	movwf	lcd_begin@lcd_cols,c
  1397                           
  1398                           ;picuno.c: 1978: byte i,d;
  1399                           ;picuno.c: 1979: _cols = lcd_cols; _rows = lcd_rows;
  1400  000DDC  C048  F0C7         	movff	lcd_begin@lcd_cols,__cols
  1401  000DE0  C047  F0C8         	movff	lcd_begin@lcd_rows,__rows
  1402                           
  1403                           ;picuno.c: 1984: if(lcd_mode==0)
  1404  000DE4  661A               	tstfsz	_lcd_mode,c
  1405  000DE6  D02E               	goto	l4495
  1406                           
  1407                           ;picuno.c: 1985: {
  1408                           ;picuno.c: 1986: lcd_nibble(0x03);
  1409  000DE8  0E03               	movlw	3
  1410  000DEA  EC32  F009         	call	_lcd_nibble
  1411                           
  1412                           ;picuno.c: 1987: lcdDelay(7);
  1413  000DEE  0E00               	movlw	0
  1414  000DF0  6E41               	movwf	lcdDelay@ms+1,c
  1415  000DF2  0E07               	movlw	7
  1416  000DF4  6E40               	movwf	lcdDelay@ms,c
  1417  000DF6  EC7D  F00A         	call	_lcdDelay	;wreg free
  1418                           
  1419                           ;picuno.c: 1988: lcd_nibble(0x03);
  1420  000DFA  0E03               	movlw	3
  1421  000DFC  EC32  F009         	call	_lcd_nibble
  1422                           
  1423                           ;picuno.c: 1989: lcdDelay(1);
  1424  000E00  0E00               	movlw	0
  1425  000E02  6E41               	movwf	lcdDelay@ms+1,c
  1426  000E04  0E01               	movlw	1
  1427  000E06  6E40               	movwf	lcdDelay@ms,c
  1428  000E08  EC7D  F00A         	call	_lcdDelay	;wreg free
  1429                           
  1430                           ;picuno.c: 1990: lcd_nibble(0x03);
  1431  000E0C  0E03               	movlw	3
  1432  000E0E  EC32  F009         	call	_lcd_nibble
  1433                           
  1434                           ;picuno.c: 1991: lcdDelay(1);
  1435  000E12  0E00               	movlw	0
  1436  000E14  6E41               	movwf	lcdDelay@ms+1,c
  1437  000E16  0E01               	movlw	1
  1438  000E18  6E40               	movwf	lcdDelay@ms,c
  1439  000E1A  EC7D  F00A         	call	_lcdDelay	;wreg free
  1440                           
  1441                           ;picuno.c: 1992: lcd_nibble(0x02);
  1442  000E1E  0E02               	movlw	2
  1443  000E20  EC32  F009         	call	_lcd_nibble
  1444                           
  1445                           ;picuno.c: 1993: lcdDelay(1);
  1446  000E24  0E00               	movlw	0
  1447  000E26  6E41               	movwf	lcdDelay@ms+1,c
  1448  000E28  0E01               	movlw	1
  1449  000E2A  6E40               	movwf	lcdDelay@ms,c
  1450  000E2C  EC7D  F00A         	call	_lcdDelay	;wreg free
  1451                           
  1452                           ;picuno.c: 1994: lcd_putdata(0x28);
  1453  000E30  0E28               	movlw	40
  1454  000E32  ECAE  F007         	call	_lcd_putdata
  1455                           
  1456                           ;picuno.c: 1995: lcdDelay(1);
  1457  000E36  0E00               	movlw	0
  1458  000E38  6E41               	movwf	lcdDelay@ms+1,c
  1459  000E3A  0E01               	movlw	1
  1460  000E3C  6E40               	movwf	lcdDelay@ms,c
  1461  000E3E  EC7D  F00A         	call	_lcdDelay	;wreg free
  1462                           
  1463                           ;picuno.c: 1996: }
  1464  000E42  D064               	goto	l989
  1465  000E44                     l4495:
  1466                           
  1467                           ;picuno.c: 1997: else if(lcd_mode == 2)
  1468  000E44  501A               	movf	_lcd_mode,w,c
  1469  000E46  0A02               	xorlw	2
  1470  000E48  A4D8               	btfss	status,2,c
  1471  000E4A  D03C               	goto	l4515
  1472                           
  1473                           ;picuno.c: 1998: {
  1474                           ;picuno.c: 2000: d = 0b00111000;
  1475  000E4C  0E38               	movlw	56
  1476  000E4E  6E49               	movwf	lcd_begin@d,c
  1477                           
  1478                           ;picuno.c: 2001: i2c_out(_Addr,d);
  1479  000E50  C049  F041         	movff	lcd_begin@d,i2c_out@data
  1480  000E54  5006               	movf	__Addr,w,c
  1481  000E56  ECAF  F009         	call	_i2c_out
  1482                           
  1483                           ;picuno.c: 2002: e_pulse(d);
  1484  000E5A  5049               	movf	lcd_begin@d,w,c
  1485  000E5C  EC38  F00A         	call	_e_pulse
  1486                           
  1487                           ;picuno.c: 2003: delay(5);
  1488  000E60  0E00               	movlw	0
  1489  000E62  6E41               	movwf	delay@ms+1,c
  1490  000E64  0E05               	movlw	5
  1491  000E66  6E40               	movwf	delay@ms,c
  1492  000E68  EC67  F00A         	call	_delay	;wreg free
  1493                           
  1494                           ;picuno.c: 2004: e_pulse(d);
  1495  000E6C  5049               	movf	lcd_begin@d,w,c
  1496  000E6E  EC38  F00A         	call	_e_pulse
  1497                           
  1498                           ;picuno.c: 2005: delay(1);
  1499  000E72  0E00               	movlw	0
  1500  000E74  6E41               	movwf	delay@ms+1,c
  1501  000E76  0E01               	movlw	1
  1502  000E78  6E40               	movwf	delay@ms,c
  1503  000E7A  EC67  F00A         	call	_delay	;wreg free
  1504                           
  1505                           ;picuno.c: 2006: e_pulse(d);
  1506  000E7E  5049               	movf	lcd_begin@d,w,c
  1507  000E80  EC38  F00A         	call	_e_pulse
  1508                           
  1509                           ;picuno.c: 2007: delay(1);
  1510  000E84  0E00               	movlw	0
  1511  000E86  6E41               	movwf	delay@ms+1,c
  1512  000E88  0E01               	movlw	1
  1513  000E8A  6E40               	movwf	delay@ms,c
  1514  000E8C  EC67  F00A         	call	_delay	;wreg free
  1515                           
  1516                           ;picuno.c: 2009: d = 0b00101000;
  1517  000E90  0E28               	movlw	40
  1518  000E92  6E49               	movwf	lcd_begin@d,c
  1519                           
  1520                           ;picuno.c: 2010: i2c_out(_Addr,d);
  1521  000E94  C049  F041         	movff	lcd_begin@d,i2c_out@data
  1522  000E98  5006               	movf	__Addr,w,c
  1523  000E9A  ECAF  F009         	call	_i2c_out
  1524                           
  1525                           ;picuno.c: 2011: e_pulse(d);
  1526  000E9E  5049               	movf	lcd_begin@d,w,c
  1527  000EA0  EC38  F00A         	call	_e_pulse
  1528                           
  1529                           ;picuno.c: 2012: delay(1);
  1530  000EA4  0E00               	movlw	0
  1531  000EA6  6E41               	movwf	delay@ms+1,c
  1532  000EA8  0E01               	movlw	1
  1533  000EAA  6E40               	movwf	delay@ms,c
  1534  000EAC  EC67  F00A         	call	_delay	;wreg free
  1535                           
  1536                           ;picuno.c: 2014: lcd_putdata(0x28);
  1537  000EB0  0E28               	movlw	40
  1538  000EB2  ECAE  F007         	call	_lcd_putdata
  1539                           
  1540                           ;picuno.c: 2015: lcdDelay(1);
  1541  000EB6  0E00               	movlw	0
  1542  000EB8  6E41               	movwf	lcdDelay@ms+1,c
  1543  000EBA  0E01               	movlw	1
  1544  000EBC  6E40               	movwf	lcdDelay@ms,c
  1545  000EBE  EC7D  F00A         	call	_lcdDelay	;wreg free
  1546                           
  1547                           ;picuno.c: 2016: }
  1548  000EC2  D024               	goto	l989
  1549  000EC4                     l4515:
  1550                           
  1551                           ;picuno.c: 2017: else{
  1552                           ;picuno.c: 2018: lcd_putdata(0x30);
  1553  000EC4  0E30               	movlw	48
  1554  000EC6  ECAE  F007         	call	_lcd_putdata
  1555                           
  1556                           ;picuno.c: 2019: lcdDelay(7);
  1557  000ECA  0E00               	movlw	0
  1558  000ECC  6E41               	movwf	lcdDelay@ms+1,c
  1559  000ECE  0E07               	movlw	7
  1560  000ED0  6E40               	movwf	lcdDelay@ms,c
  1561  000ED2  EC7D  F00A         	call	_lcdDelay	;wreg free
  1562                           
  1563                           ;picuno.c: 2020: lcd_putdata(0x30);
  1564  000ED6  0E30               	movlw	48
  1565  000ED8  ECAE  F007         	call	_lcd_putdata
  1566                           
  1567                           ;picuno.c: 2021: lcdDelay(1);
  1568  000EDC  0E00               	movlw	0
  1569  000EDE  6E41               	movwf	lcdDelay@ms+1,c
  1570  000EE0  0E01               	movlw	1
  1571  000EE2  6E40               	movwf	lcdDelay@ms,c
  1572  000EE4  EC7D  F00A         	call	_lcdDelay	;wreg free
  1573                           
  1574                           ;picuno.c: 2022: lcd_putdata(0x30);
  1575  000EE8  0E30               	movlw	48
  1576  000EEA  ECAE  F007         	call	_lcd_putdata
  1577                           
  1578                           ;picuno.c: 2023: lcdDelay(1);
  1579  000EEE  0E00               	movlw	0
  1580  000EF0  6E41               	movwf	lcdDelay@ms+1,c
  1581  000EF2  0E01               	movlw	1
  1582  000EF4  6E40               	movwf	lcdDelay@ms,c
  1583  000EF6  EC7D  F00A         	call	_lcdDelay	;wreg free
  1584                           
  1585                           ;picuno.c: 2024: lcd_putdata(0x38);
  1586  000EFA  0E38               	movlw	56
  1587  000EFC  ECAE  F007         	call	_lcd_putdata
  1588                           
  1589                           ;picuno.c: 2025: lcdDelay(1);
  1590  000F00  0E00               	movlw	0
  1591  000F02  6E41               	movwf	lcdDelay@ms+1,c
  1592  000F04  0E01               	movlw	1
  1593  000F06  6E40               	movwf	lcdDelay@ms,c
  1594  000F08  EC7D  F00A         	call	_lcdDelay	;wreg free
  1595  000F0C                     l989:
  1596                           
  1597                           ;picuno.c: 2026: }
  1598                           ;picuno.c: 2029: lcd_putdata(0x08);
  1599  000F0C  0E08               	movlw	8
  1600  000F0E  ECAE  F007         	call	_lcd_putdata
  1601                           
  1602                           ;picuno.c: 2030: lcdDelay(1);
  1603  000F12  0E00               	movlw	0
  1604  000F14  6E41               	movwf	lcdDelay@ms+1,c
  1605  000F16  0E01               	movlw	1
  1606  000F18  6E40               	movwf	lcdDelay@ms,c
  1607  000F1A  EC7D  F00A         	call	_lcdDelay	;wreg free
  1608                           
  1609                           ;picuno.c: 2031: lcd_putdata(0x01);
  1610  000F1E  0E01               	movlw	1
  1611  000F20  ECAE  F007         	call	_lcd_putdata
  1612                           
  1613                           ;picuno.c: 2032: lcdDelay(7);
  1614  000F24  0E00               	movlw	0
  1615  000F26  6E41               	movwf	lcdDelay@ms+1,c
  1616  000F28  0E07               	movlw	7
  1617  000F2A  6E40               	movwf	lcdDelay@ms,c
  1618  000F2C  EC7D  F00A         	call	_lcdDelay	;wreg free
  1619                           
  1620                           ;picuno.c: 2033: lcd_putdata(0x06);
  1621  000F30  0E06               	movlw	6
  1622  000F32  ECAE  F007         	call	_lcd_putdata
  1623                           
  1624                           ;picuno.c: 2034: lcdDelay(1);
  1625  000F36  0E00               	movlw	0
  1626  000F38  6E41               	movwf	lcdDelay@ms+1,c
  1627  000F3A  0E01               	movlw	1
  1628  000F3C  6E40               	movwf	lcdDelay@ms,c
  1629  000F3E  EC7D  F00A         	call	_lcdDelay	;wreg free
  1630                           
  1631                           ;picuno.c: 2035: lcd_putdata(lcd_disp);
  1632  000F42  504E               	movf	_lcd_disp,w,c
  1633  000F44  ECAE  F007         	call	_lcd_putdata
  1634                           
  1635                           ;picuno.c: 2036: lcdDelay(1);
  1636  000F48  0E00               	movlw	0
  1637  000F4A  6E41               	movwf	lcdDelay@ms+1,c
  1638  000F4C  0E01               	movlw	1
  1639  000F4E  6E40               	movwf	lcdDelay@ms,c
  1640  000F50  EC7D  F00A         	call	_lcdDelay	;wreg free
  1641                           
  1642                           ;picuno.c: 2041: lcd_temp = 0;
  1643  000F54  0E00               	movlw	0
  1644  000F56  0100               	movlb	0	; () banked
  1645  000F58  6FCC               	movwf	_lcd_temp& (0+255),b
  1646                           
  1647                           ; BSR set to: 0
  1648  000F5A  0012               	return	
  1649  000F5C                     __end_of_lcd_begin:
  1650                           	opt stack 0
  1651                           tblptru	equ	0xFF8
  1652                           tblptrh	equ	0xFF7
  1653                           tblptrl	equ	0xFF6
  1654                           tablat	equ	0xFF5
  1655                           prodl	equ	0xFF3
  1656                           postinc0	equ	0xFEE
  1657                           wreg	equ	0xFE8
  1658                           postdec1	equ	0xFE5
  1659                           fsr1l	equ	0xFE1
  1660                           status	equ	0xFD8
  1661                           
  1662 ;; *************** function _lcd_putdata *****************
  1663 ;; Defined at:
  1664 ;;		line 1791 in file "../../picuno/picuno.c"
  1665 ;; Parameters:    Size  Location     Type
  1666 ;;  d               1    wreg     unsigned char 
  1667 ;; Auto vars:     Size  Location     Type
  1668 ;;  d               1   23[COMRAM] unsigned char 
  1669 ;;  dd              1   22[COMRAM] unsigned char 
  1670 ;; Return value:  Size  Location     Type
  1671 ;;		None               void
  1672 ;; Registers used:
  1673 ;;		wreg, status,2, status,0, cstack
  1674 ;; Tracked objects:
  1675 ;;		On entry : 0/0
  1676 ;;		On exit  : 0/0
  1677 ;;		Unchanged: 0/0
  1678 ;; Data sizes:     COMRAM   BANK0   BANK1   BANK2   BANK3   BANK4   BANK5
  1679 ;;      Params:         0       0       0       0       0       0       0
  1680 ;;      Locals:         2       0       0       0       0       0       0
  1681 ;;      Temps:          0       0       0       0       0       0       0
  1682 ;;      Totals:         2       0       0       0       0       0       0
  1683 ;;Total ram usage:        2 bytes
  1684 ;; Hardware stack levels used:    1
  1685 ;; Hardware stack levels required when called:    6
  1686 ;; This function calls:
  1687 ;;		_digitalWrite
  1688 ;;		_e_pulse
  1689 ;;		_i2c_out
  1690 ;;		_lcd_nibble
  1691 ;; This function is called by:
  1692 ;;		_lcd_setCursor
  1693 ;;		_lcd_putc
  1694 ;;		_lcd_begin
  1695 ;;		_lcd_clear
  1696 ;;		_lcd_home
  1697 ;;		_lcd_cursor
  1698 ;;		_lcd_noCursor
  1699 ;;		_lcd_blink
  1700 ;;		_lcd_noBlink
  1701 ;;		_lcd_display
  1702 ;;		_lcd_noDisplay
  1703 ;;		_lcd_line1
  1704 ;;		_lcd_line2
  1705 ;; This function uses a non-reentrant model
  1706 ;;
  1707                           
  1708                           	psect	text9
  1709  000F5C                     __ptext9:
  1710                           	opt stack 0
  1711  000F5C                     _lcd_putdata:
  1712                           	opt stack 22
  1713                           
  1714                           ; BSR set to: 0
  1715                           ;incstack = 0
  1716                           ;lcd_putdata@d stored from wreg
  1717  000F5C  6E46               	movwf	lcd_putdata@d,c
  1718                           
  1719                           ;picuno.c: 1793: byte dd;
  1720                           ;picuno.c: 1797: if(lcd_mode==0)
  1721  000F5E  661A               	tstfsz	_lcd_mode,c
  1722  000F60  D009               	goto	l4363
  1723                           
  1724                           ;picuno.c: 1798: {
  1725                           ;picuno.c: 1799: lcd_nibble(d>>4);
  1726  000F62  3846               	swapf	lcd_putdata@d,w,c
  1727  000F64  0B0F               	andlw	15
  1728  000F66  EC32  F009         	call	_lcd_nibble
  1729                           
  1730                           ;picuno.c: 1800: lcd_nibble(d & 0x0F);
  1731  000F6A  5046               	movf	lcd_putdata@d,w,c
  1732  000F6C  0B0F               	andlw	15
  1733  000F6E  EC32  F009         	call	_lcd_nibble
  1734                           
  1735                           ;picuno.c: 1801: }
  1736  000F72  0012               	return	
  1737  000F74                     l4363:
  1738                           
  1739                           ;picuno.c: 1802: else if(lcd_mode == 2)
  1740  000F74  501A               	movf	_lcd_mode,w,c
  1741  000F76  0A02               	xorlw	2
  1742  000F78  A4D8               	btfss	status,2,c
  1743  000F7A  D01A               	goto	l885
  1744                           
  1745                           ;picuno.c: 1803: {
  1746                           ;picuno.c: 1804: dd = ((d&0xF0)& 0xfe)|0b00001000;
  1747  000F7C  5046               	movf	lcd_putdata@d,w,c
  1748  000F7E  0BF0               	andlw	240
  1749  000F80  0908               	iorlw	8
  1750  000F82  6E45               	movwf	lcd_putdata@dd,c
  1751                           
  1752                           ;picuno.c: 1805: i2c_out(_Addr,dd);
  1753  000F84  C045  F041         	movff	lcd_putdata@dd,i2c_out@data
  1754  000F88  5006               	movf	__Addr,w,c
  1755  000F8A  ECAF  F009         	call	_i2c_out
  1756                           
  1757                           ;picuno.c: 1806: e_pulse(dd);
  1758  000F8E  5045               	movf	lcd_putdata@dd,w,c
  1759  000F90  EC38  F00A         	call	_e_pulse
  1760                           
  1761                           ;picuno.c: 1807: dd = (((d<<4)&0xf0)& 0xfe)|0b00001000;
  1762  000F94  3846               	swapf	lcd_putdata@d,w,c
  1763  000F96  0BF0               	andlw	240
  1764  000F98  0BF0               	andlw	240
  1765  000F9A  0908               	iorlw	8
  1766  000F9C  6E45               	movwf	lcd_putdata@dd,c
  1767                           
  1768                           ;picuno.c: 1808: i2c_out(_Addr,dd);
  1769  000F9E  C045  F041         	movff	lcd_putdata@dd,i2c_out@data
  1770  000FA2  5006               	movf	__Addr,w,c
  1771  000FA4  ECAF  F009         	call	_i2c_out
  1772                           
  1773                           ;picuno.c: 1809: e_pulse(dd);
  1774  000FA8  5045               	movf	lcd_putdata@dd,w,c
  1775  000FAA  EC38  F00A         	call	_e_pulse
  1776                           
  1777                           ;picuno.c: 1810: }
  1778  000FAE  0012               	return	
  1779  000FB0                     l885:
  1780                           
  1781                           ;picuno.c: 1811: else
  1782                           ;picuno.c: 1812: {
  1783                           ;picuno.c: 1816: if(d & 0x01) digitalWrite(lcd_d0,1); else digitalWrite(lcd_d0,0);
  1784  000FB0  A046               	btfss	lcd_putdata@d,0,c
  1785  000FB2  D006               	goto	l4377
  1786  000FB4  0E01               	movlw	1
  1787  000FB6  6E40               	movwf	digitalWrite@value,c
  1788  000FB8  5011               	movf	_lcd_d0,w,c
  1789  000FBA  ECAE  F005         	call	_digitalWrite
  1790  000FBE  D005               	goto	l4379
  1791  000FC0                     l4377:
  1792  000FC0  0E00               	movlw	0
  1793  000FC2  6E40               	movwf	digitalWrite@value,c
  1794  000FC4  5011               	movf	_lcd_d0,w,c
  1795  000FC6  ECAE  F005         	call	_digitalWrite
  1796  000FCA                     l4379:
  1797                           
  1798                           ;picuno.c: 1817: if(d & 0x02) digitalWrite(lcd_d1,1); else digitalWrite(lcd_d1,0);
  1799  000FCA  A246               	btfss	lcd_putdata@d,1,c
  1800  000FCC  D006               	goto	l4383
  1801  000FCE  0E01               	movlw	1
  1802  000FD0  6E40               	movwf	digitalWrite@value,c
  1803  000FD2  5012               	movf	_lcd_d1,w,c
  1804  000FD4  ECAE  F005         	call	_digitalWrite
  1805  000FD8  D005               	goto	l4385
  1806  000FDA                     l4383:
  1807  000FDA  0E00               	movlw	0
  1808  000FDC  6E40               	movwf	digitalWrite@value,c
  1809  000FDE  5012               	movf	_lcd_d1,w,c
  1810  000FE0  ECAE  F005         	call	_digitalWrite
  1811  000FE4                     l4385:
  1812                           
  1813                           ;picuno.c: 1818: if(d & 0x04) digitalWrite(lcd_d2,1); else digitalWrite(lcd_d2,0);
  1814  000FE4  A446               	btfss	lcd_putdata@d,2,c
  1815  000FE6  D006               	goto	l4389
  1816  000FE8  0E01               	movlw	1
  1817  000FEA  6E40               	movwf	digitalWrite@value,c
  1818  000FEC  5013               	movf	_lcd_d2,w,c
  1819  000FEE  ECAE  F005         	call	_digitalWrite
  1820  000FF2  D005               	goto	l4391
  1821  000FF4                     l4389:
  1822  000FF4  0E00               	movlw	0
  1823  000FF6  6E40               	movwf	digitalWrite@value,c
  1824  000FF8  5013               	movf	_lcd_d2,w,c
  1825  000FFA  ECAE  F005         	call	_digitalWrite
  1826  000FFE                     l4391:
  1827                           
  1828                           ;picuno.c: 1819: if(d & 0x08) digitalWrite(lcd_d3,1); else digitalWrite(lcd_d3,0);
  1829  000FFE  A646               	btfss	lcd_putdata@d,3,c
  1830  001000  D006               	goto	l4395
  1831  001002  0E01               	movlw	1
  1832  001004  6E40               	movwf	digitalWrite@value,c
  1833  001006  5014               	movf	_lcd_d3,w,c
  1834  001008  ECAE  F005         	call	_digitalWrite
  1835  00100C  D005               	goto	l4397
  1836  00100E                     l4395:
  1837  00100E  0E00               	movlw	0
  1838  001010  6E40               	movwf	digitalWrite@value,c
  1839  001012  5014               	movf	_lcd_d3,w,c
  1840  001014  ECAE  F005         	call	_digitalWrite
  1841  001018                     l4397:
  1842                           
  1843                           ;picuno.c: 1820: if(d & 0x10) digitalWrite(lcd_d4,1); else digitalWrite(lcd_d4,0);
  1844  001018  A846               	btfss	lcd_putdata@d,4,c
  1845  00101A  D006               	goto	l4401
  1846  00101C  0E01               	movlw	1
  1847  00101E  6E40               	movwf	digitalWrite@value,c
  1848  001020  5015               	movf	_lcd_d4,w,c
  1849  001022  ECAE  F005         	call	_digitalWrite
  1850  001026  D005               	goto	l4403
  1851  001028                     l4401:
  1852  001028  0E00               	movlw	0
  1853  00102A  6E40               	movwf	digitalWrite@value,c
  1854  00102C  5015               	movf	_lcd_d4,w,c
  1855  00102E  ECAE  F005         	call	_digitalWrite
  1856  001032                     l4403:
  1857                           
  1858                           ;picuno.c: 1821: if(d & 0x20) digitalWrite(lcd_d5,1); else digitalWrite(lcd_d5,0);
  1859  001032  AA46               	btfss	lcd_putdata@d,5,c
  1860  001034  D006               	goto	l4407
  1861  001036  0E01               	movlw	1
  1862  001038  6E40               	movwf	digitalWrite@value,c
  1863  00103A  5016               	movf	_lcd_d5,w,c
  1864  00103C  ECAE  F005         	call	_digitalWrite
  1865  001040  D005               	goto	l4409
  1866  001042                     l4407:
  1867  001042  0E00               	movlw	0
  1868  001044  6E40               	movwf	digitalWrite@value,c
  1869  001046  5016               	movf	_lcd_d5,w,c
  1870  001048  ECAE  F005         	call	_digitalWrite
  1871  00104C                     l4409:
  1872                           
  1873                           ;picuno.c: 1822: if(d & 0x40) digitalWrite(lcd_d6,1); else digitalWrite(lcd_d6,0);
  1874  00104C  AC46               	btfss	lcd_putdata@d,6,c
  1875  00104E  D006               	goto	l4413
  1876  001050  0E01               	movlw	1
  1877  001052  6E40               	movwf	digitalWrite@value,c
  1878  001054  5017               	movf	_lcd_d6,w,c
  1879  001056  ECAE  F005         	call	_digitalWrite
  1880  00105A  D005               	goto	l4415
  1881  00105C                     l4413:
  1882  00105C  0E00               	movlw	0
  1883  00105E  6E40               	movwf	digitalWrite@value,c
  1884  001060  5017               	movf	_lcd_d6,w,c
  1885  001062  ECAE  F005         	call	_digitalWrite
  1886  001066                     l4415:
  1887                           
  1888                           ;picuno.c: 1823: if(d & 0x80) digitalWrite(lcd_d7,1); else digitalWrite(lcd_d7,0);
  1889  001066  AE46               	btfss	lcd_putdata@d,7,c
  1890  001068  D006               	goto	l4419
  1891  00106A  0E01               	movlw	1
  1892  00106C  6E40               	movwf	digitalWrite@value,c
  1893  00106E  5018               	movf	_lcd_d7,w,c
  1894  001070  ECAE  F005         	call	_digitalWrite
  1895  001074  D005               	goto	l902
  1896  001076                     l4419:
  1897  001076  0E00               	movlw	0
  1898  001078  6E40               	movwf	digitalWrite@value,c
  1899  00107A  5018               	movf	_lcd_d7,w,c
  1900  00107C  ECAE  F005         	call	_digitalWrite
  1901  001080                     l902:
  1902                           
  1903                           ;picuno.c: 1825: digitalWrite(lcd_en,1);
  1904  001080  0E01               	movlw	1
  1905  001082  6E40               	movwf	digitalWrite@value,c
  1906  001084  5019               	movf	_lcd_en,w,c
  1907  001086  ECAE  F005         	call	_digitalWrite
  1908                           
  1909                           ;picuno.c: 1826: __nop(); __nop(); __nop(); __nop();
  1910  00108A  F000               	nop	
  1911  00108C  F000               	nop	
  1912  00108E  F000               	nop	
  1913  001090  F000               	nop	
  1914                           
  1915                           ;picuno.c: 1827: digitalWrite(lcd_en,0);
  1916  001092  0E00               	movlw	0
  1917  001094  6E40               	movwf	digitalWrite@value,c
  1918  001096  5019               	movf	_lcd_en,w,c
  1919  001098  ECAE  F005         	call	_digitalWrite
  1920  00109C  0012               	return	
  1921  00109E                     __end_of_lcd_putdata:
  1922                           	opt stack 0
  1923                           tblptru	equ	0xFF8
  1924                           tblptrh	equ	0xFF7
  1925                           tblptrl	equ	0xFF6
  1926                           tablat	equ	0xFF5
  1927                           prodl	equ	0xFF3
  1928                           postinc0	equ	0xFEE
  1929                           wreg	equ	0xFE8
  1930                           postdec1	equ	0xFE5
  1931                           fsr1l	equ	0xFE1
  1932                           status	equ	0xFD8
  1933                           
  1934 ;; *************** function _lcd_nibble *****************
  1935 ;; Defined at:
  1936 ;;		line 1779 in file "../../picuno/picuno.c"
  1937 ;; Parameters:    Size  Location     Type
  1938 ;;  nd              1    wreg     unsigned char 
  1939 ;; Auto vars:     Size  Location     Type
  1940 ;;  nd              1   19[COMRAM] unsigned char 
  1941 ;; Return value:  Size  Location     Type
  1942 ;;		None               void
  1943 ;; Registers used:
  1944 ;;		wreg, status,2, status,0, cstack
  1945 ;; Tracked objects:
  1946 ;;		On entry : 0/0
  1947 ;;		On exit  : 0/0
  1948 ;;		Unchanged: 0/0
  1949 ;; Data sizes:     COMRAM   BANK0   BANK1   BANK2   BANK3   BANK4   BANK5
  1950 ;;      Params:         0       0       0       0       0       0       0
  1951 ;;      Locals:         1       0       0       0       0       0       0
  1952 ;;      Temps:          0       0       0       0       0       0       0
  1953 ;;      Totals:         1       0       0       0       0       0       0
  1954 ;;Total ram usage:        1 bytes
  1955 ;; Hardware stack levels used:    1
  1956 ;; Hardware stack levels required when called:    4
  1957 ;; This function calls:
  1958 ;;		_digitalWrite
  1959 ;; This function is called by:
  1960 ;;		_lcd_putdata
  1961 ;;		_lcd_begin
  1962 ;; This function uses a non-reentrant model
  1963 ;;
  1964                           
  1965                           	psect	text10
  1966  001264                     __ptext10:
  1967                           	opt stack 0
  1968  001264                     _lcd_nibble:
  1969                           	opt stack 23
  1970                           
  1971                           ;incstack = 0
  1972                           ;lcd_nibble@nd stored from wreg
  1973  001264  6E42               	movwf	lcd_nibble@nd,c
  1974                           
  1975                           ;picuno.c: 1781: if(nd & 0x01) digitalWrite(lcd_d4,1); else digitalWrite(lcd_d4,0);
  1976  001266  A042               	btfss	lcd_nibble@nd,0,c
  1977  001268  D006               	goto	l4061
  1978  00126A  0E01               	movlw	1
  1979  00126C  6E40               	movwf	digitalWrite@value,c
  1980  00126E  5015               	movf	_lcd_d4,w,c
  1981  001270  ECAE  F005         	call	_digitalWrite
  1982  001274  D005               	goto	l4063
  1983  001276                     l4061:
  1984  001276  0E00               	movlw	0
  1985  001278  6E40               	movwf	digitalWrite@value,c
  1986  00127A  5015               	movf	_lcd_d4,w,c
  1987  00127C  ECAE  F005         	call	_digitalWrite
  1988  001280                     l4063:
  1989                           
  1990                           ;picuno.c: 1782: if(nd & 0x02) digitalWrite(lcd_d5,1); else digitalWrite(lcd_d5,0);
  1991  001280  A242               	btfss	lcd_nibble@nd,1,c
  1992  001282  D006               	goto	l4067
  1993  001284  0E01               	movlw	1
  1994  001286  6E40               	movwf	digitalWrite@value,c
  1995  001288  5016               	movf	_lcd_d5,w,c
  1996  00128A  ECAE  F005         	call	_digitalWrite
  1997  00128E  D005               	goto	l4069
  1998  001290                     l4067:
  1999  001290  0E00               	movlw	0
  2000  001292  6E40               	movwf	digitalWrite@value,c
  2001  001294  5016               	movf	_lcd_d5,w,c
  2002  001296  ECAE  F005         	call	_digitalWrite
  2003  00129A                     l4069:
  2004                           
  2005                           ;picuno.c: 1783: if(nd & 0x04) digitalWrite(lcd_d6,1); else digitalWrite(lcd_d6,0);
  2006  00129A  A442               	btfss	lcd_nibble@nd,2,c
  2007  00129C  D006               	goto	l4073
  2008  00129E  0E01               	movlw	1
  2009  0012A0  6E40               	movwf	digitalWrite@value,c
  2010  0012A2  5017               	movf	_lcd_d6,w,c
  2011  0012A4  ECAE  F005         	call	_digitalWrite
  2012  0012A8  D005               	goto	l4075
  2013  0012AA                     l4073:
  2014  0012AA  0E00               	movlw	0
  2015  0012AC  6E40               	movwf	digitalWrite@value,c
  2016  0012AE  5017               	movf	_lcd_d6,w,c
  2017  0012B0  ECAE  F005         	call	_digitalWrite
  2018  0012B4                     l4075:
  2019                           
  2020                           ;picuno.c: 1784: if(nd & 0x08) digitalWrite(lcd_d7,1); else digitalWrite(lcd_d7,0);
  2021  0012B4  A642               	btfss	lcd_nibble@nd,3,c
  2022  0012B6  D006               	goto	l4079
  2023  0012B8  0E01               	movlw	1
  2024  0012BA  6E40               	movwf	digitalWrite@value,c
  2025  0012BC  5018               	movf	_lcd_d7,w,c
  2026  0012BE  ECAE  F005         	call	_digitalWrite
  2027  0012C2  D005               	goto	l879
  2028  0012C4                     l4079:
  2029  0012C4  0E00               	movlw	0
  2030  0012C6  6E40               	movwf	digitalWrite@value,c
  2031  0012C8  5018               	movf	_lcd_d7,w,c
  2032  0012CA  ECAE  F005         	call	_digitalWrite
  2033  0012CE                     l879:
  2034                           
  2035                           ;picuno.c: 1785: digitalWrite(lcd_en,1);
  2036  0012CE  0E01               	movlw	1
  2037  0012D0  6E40               	movwf	digitalWrite@value,c
  2038  0012D2  5019               	movf	_lcd_en,w,c
  2039  0012D4  ECAE  F005         	call	_digitalWrite
  2040                           
  2041                           ;picuno.c: 1786: __nop(); __nop(); __nop(); __nop();
  2042  0012D8  F000               	nop	
  2043  0012DA  F000               	nop	
  2044  0012DC  F000               	nop	
  2045  0012DE  F000               	nop	
  2046                           
  2047                           ;picuno.c: 1787: digitalWrite(lcd_en,0);
  2048  0012E0  0E00               	movlw	0
  2049  0012E2  6E40               	movwf	digitalWrite@value,c
  2050  0012E4  5019               	movf	_lcd_en,w,c
  2051  0012E6  ECAE  F005         	call	_digitalWrite
  2052  0012EA  0012               	return	
  2053  0012EC                     __end_of_lcd_nibble:
  2054                           	opt stack 0
  2055                           tblptru	equ	0xFF8
  2056                           tblptrh	equ	0xFF7
  2057                           tblptrl	equ	0xFF6
  2058                           tablat	equ	0xFF5
  2059                           prodl	equ	0xFF3
  2060                           postinc0	equ	0xFEE
  2061                           wreg	equ	0xFE8
  2062                           postdec1	equ	0xFE5
  2063                           fsr1l	equ	0xFE1
  2064                           status	equ	0xFD8
  2065                           
  2066 ;; *************** function _digitalWrite *****************
  2067 ;; Defined at:
  2068 ;;		line 1507 in file "../../picuno/picuno.c"
  2069 ;; Parameters:    Size  Location     Type
  2070 ;;  pin             1    wreg     unsigned char 
  2071 ;;  value           1   17[COMRAM] unsigned char 
  2072 ;; Auto vars:     Size  Location     Type
  2073 ;;  pin             1   18[COMRAM] unsigned char 
  2074 ;; Return value:  Size  Location     Type
  2075 ;;		None               void
  2076 ;; Registers used:
  2077 ;;		wreg, status,2, status,0
  2078 ;; Tracked objects:
  2079 ;;		On entry : 0/0
  2080 ;;		On exit  : 0/0
  2081 ;;		Unchanged: 0/0
  2082 ;; Data sizes:     COMRAM   BANK0   BANK1   BANK2   BANK3   BANK4   BANK5
  2083 ;;      Params:         1       0       0       0       0       0       0
  2084 ;;      Locals:         1       0       0       0       0       0       0
  2085 ;;      Temps:          0       0       0       0       0       0       0
  2086 ;;      Totals:         2       0       0       0       0       0       0
  2087 ;;Total ram usage:        2 bytes
  2088 ;; Hardware stack levels used:    1
  2089 ;; Hardware stack levels required when called:    3
  2090 ;; This function calls:
  2091 ;;		Nothing
  2092 ;; This function is called by:
  2093 ;;		_lcd_nibble
  2094 ;;		_lcd_putdata
  2095 ;;		_lcd_putc
  2096 ;;		_keypad_begin34
  2097 ;;		_keypad_begin44
  2098 ;;		_keypadRead
  2099 ;; This function uses a non-reentrant model
  2100 ;;
  2101                           
  2102                           	psect	text11
  2103  000B5C                     __ptext11:
  2104                           	opt stack 0
  2105  000B5C                     _digitalWrite:
  2106                           	opt stack 23
  2107                           
  2108                           ;incstack = 0
  2109                           ;digitalWrite@pin stored from wreg
  2110  000B5C  6E41               	movwf	digitalWrite@pin,c
  2111                           
  2112                           ;picuno.c: 1509: switch(pin)
  2113  000B5E  D0D2               	goto	l3999
  2114  000B60                     l717:
  2115  000B60  B040               	btfsc	digitalWrite@value,0,c
  2116  000B62  D002               	bra	u3405
  2117  000B64  9089               	bcf	3977,0,c	;volatile
  2118  000B66  D001               	bra	u3406
  2119  000B68                     u3405:
  2120  000B68  8089               	bsf	3977,0,c	;volatile
  2121  000B6A                     u3406:
  2122  000B6A  0012               	return	
  2123  000B6C                     l719:
  2124  000B6C  B040               	btfsc	digitalWrite@value,0,c
  2125  000B6E  D002               	bra	u3415
  2126  000B70  9289               	bcf	3977,1,c	;volatile
  2127  000B72  D001               	bra	u3416
  2128  000B74                     u3415:
  2129  000B74  8289               	bsf	3977,1,c	;volatile
  2130  000B76                     u3416:
  2131  000B76  0012               	return	
  2132  000B78                     l720:
  2133  000B78  B040               	btfsc	digitalWrite@value,0,c
  2134  000B7A  D002               	bra	u3425
  2135  000B7C  9489               	bcf	3977,2,c	;volatile
  2136  000B7E  D001               	bra	u3426
  2137  000B80                     u3425:
  2138  000B80  8489               	bsf	3977,2,c	;volatile
  2139  000B82                     u3426:
  2140  000B82  0012               	return	
  2141  000B84                     l721:
  2142  000B84  B040               	btfsc	digitalWrite@value,0,c
  2143  000B86  D002               	bra	u3435
  2144  000B88  9689               	bcf	3977,3,c	;volatile
  2145  000B8A  D001               	bra	u3436
  2146  000B8C                     u3435:
  2147  000B8C  8689               	bsf	3977,3,c	;volatile
  2148  000B8E                     u3436:
  2149  000B8E  0012               	return	
  2150  000B90                     l722:
  2151  000B90  B040               	btfsc	digitalWrite@value,0,c
  2152  000B92  D002               	bra	u3445
  2153  000B94  9889               	bcf	3977,4,c	;volatile
  2154  000B96  D001               	bra	u3446
  2155  000B98                     u3445:
  2156  000B98  8889               	bsf	3977,4,c	;volatile
  2157  000B9A                     u3446:
  2158  000B9A  0012               	return	
  2159  000B9C                     l723:
  2160  000B9C  B040               	btfsc	digitalWrite@value,0,c
  2161  000B9E  D002               	bra	u3455
  2162  000BA0  9A89               	bcf	3977,5,c	;volatile
  2163  000BA2  D001               	bra	u3456
  2164  000BA4                     u3455:
  2165  000BA4  8A89               	bsf	3977,5,c	;volatile
  2166  000BA6                     u3456:
  2167  000BA6  0012               	return	
  2168  000BA8                     l724:
  2169  000BA8  B040               	btfsc	digitalWrite@value,0,c
  2170  000BAA  D002               	bra	u3465
  2171  000BAC  9C89               	bcf	3977,6,c	;volatile
  2172  000BAE  D001               	bra	u3466
  2173  000BB0                     u3465:
  2174  000BB0  8C89               	bsf	3977,6,c	;volatile
  2175  000BB2                     u3466:
  2176  000BB2  0012               	return	
  2177  000BB4                     l725:
  2178  000BB4  B040               	btfsc	digitalWrite@value,0,c
  2179  000BB6  D002               	bra	u3475
  2180  000BB8  9E89               	bcf	3977,7,c	;volatile
  2181  000BBA  D001               	bra	u3476
  2182  000BBC                     u3475:
  2183  000BBC  8E89               	bsf	3977,7,c	;volatile
  2184  000BBE                     u3476:
  2185  000BBE  0012               	return	
  2186  000BC0                     l726:
  2187  000BC0  B040               	btfsc	digitalWrite@value,0,c
  2188  000BC2  D002               	bra	u3485
  2189  000BC4  908A               	bcf	3978,0,c	;volatile
  2190  000BC6  D001               	bra	u3486
  2191  000BC8                     u3485:
  2192  000BC8  808A               	bsf	3978,0,c	;volatile
  2193  000BCA                     u3486:
  2194  000BCA  0012               	return	
  2195  000BCC                     l727:
  2196  000BCC  B040               	btfsc	digitalWrite@value,0,c
  2197  000BCE  D002               	bra	u3495
  2198  000BD0  928A               	bcf	3978,1,c	;volatile
  2199  000BD2  D001               	bra	u3496
  2200  000BD4                     u3495:
  2201  000BD4  828A               	bsf	3978,1,c	;volatile
  2202  000BD6                     u3496:
  2203  000BD6  0012               	return	
  2204  000BD8                     l728:
  2205  000BD8  B040               	btfsc	digitalWrite@value,0,c
  2206  000BDA  D002               	bra	u3505
  2207  000BDC  948A               	bcf	3978,2,c	;volatile
  2208  000BDE  D001               	bra	u3506
  2209  000BE0                     u3505:
  2210  000BE0  848A               	bsf	3978,2,c	;volatile
  2211  000BE2                     u3506:
  2212  000BE2  0012               	return	
  2213  000BE4                     l729:
  2214  000BE4  B040               	btfsc	digitalWrite@value,0,c
  2215  000BE6  D002               	bra	u3515
  2216  000BE8  968A               	bcf	3978,3,c	;volatile
  2217  000BEA  D001               	bra	u3516
  2218  000BEC                     u3515:
  2219  000BEC  868A               	bsf	3978,3,c	;volatile
  2220  000BEE                     u3516:
  2221  000BEE  0012               	return	
  2222  000BF0                     l730:
  2223  000BF0  B040               	btfsc	digitalWrite@value,0,c
  2224  000BF2  D002               	bra	u3525
  2225  000BF4  988A               	bcf	3978,4,c	;volatile
  2226  000BF6  D001               	bra	u3526
  2227  000BF8                     u3525:
  2228  000BF8  888A               	bsf	3978,4,c	;volatile
  2229  000BFA                     u3526:
  2230  000BFA  0012               	return	
  2231  000BFC                     l731:
  2232  000BFC  B040               	btfsc	digitalWrite@value,0,c
  2233  000BFE  D002               	bra	u3535
  2234  000C00  9A8A               	bcf	3978,5,c	;volatile
  2235  000C02  D001               	bra	u3536
  2236  000C04                     u3535:
  2237  000C04  8A8A               	bsf	3978,5,c	;volatile
  2238  000C06                     u3536:
  2239  000C06  0012               	return	
  2240  000C08                     l732:
  2241  000C08  B040               	btfsc	digitalWrite@value,0,c
  2242  000C0A  D002               	bra	u3545
  2243  000C0C  9C8A               	bcf	3978,6,c	;volatile
  2244  000C0E  D001               	bra	u3546
  2245  000C10                     u3545:
  2246  000C10  8C8A               	bsf	3978,6,c	;volatile
  2247  000C12                     u3546:
  2248  000C12  0012               	return	
  2249  000C14                     l733:
  2250  000C14  B040               	btfsc	digitalWrite@value,0,c
  2251  000C16  D002               	bra	u3555
  2252  000C18  9E8A               	bcf	3978,7,c	;volatile
  2253  000C1A  D001               	bra	u3556
  2254  000C1C                     u3555:
  2255  000C1C  8E8A               	bsf	3978,7,c	;volatile
  2256  000C1E                     u3556:
  2257  000C1E  0012               	return	
  2258  000C20                     l734:
  2259  000C20  B040               	btfsc	digitalWrite@value,0,c
  2260  000C22  D002               	bra	u3565
  2261  000C24  908B               	bcf	3979,0,c	;volatile
  2262  000C26  D001               	bra	u3566
  2263  000C28                     u3565:
  2264  000C28  808B               	bsf	3979,0,c	;volatile
  2265  000C2A                     u3566:
  2266  000C2A  0012               	return	
  2267  000C2C                     l735:
  2268  000C2C  B040               	btfsc	digitalWrite@value,0,c
  2269  000C2E  D002               	bra	u3575
  2270  000C30  928B               	bcf	3979,1,c	;volatile
  2271  000C32  D001               	bra	u3576
  2272  000C34                     u3575:
  2273  000C34  828B               	bsf	3979,1,c	;volatile
  2274  000C36                     u3576:
  2275  000C36  0012               	return	
  2276  000C38                     l736:
  2277  000C38  B040               	btfsc	digitalWrite@value,0,c
  2278  000C3A  D002               	bra	u3585
  2279  000C3C  948B               	bcf	3979,2,c	;volatile
  2280  000C3E  D001               	bra	u3586
  2281  000C40                     u3585:
  2282  000C40  848B               	bsf	3979,2,c	;volatile
  2283  000C42                     u3586:
  2284  000C42  0012               	return	
  2285  000C44                     l737:
  2286  000C44  B040               	btfsc	digitalWrite@value,0,c
  2287  000C46  D002               	bra	u3595
  2288  000C48  968B               	bcf	3979,3,c	;volatile
  2289  000C4A  D001               	bra	u3596
  2290  000C4C                     u3595:
  2291  000C4C  868B               	bsf	3979,3,c	;volatile
  2292  000C4E                     u3596:
  2293  000C4E  0012               	return	
  2294  000C50                     l738:
  2295  000C50  B040               	btfsc	digitalWrite@value,0,c
  2296  000C52  D002               	bra	u3605
  2297  000C54  988B               	bcf	3979,4,c	;volatile
  2298  000C56  D001               	bra	u3606
  2299  000C58                     u3605:
  2300  000C58  888B               	bsf	3979,4,c	;volatile
  2301  000C5A                     u3606:
  2302  000C5A  0012               	return	
  2303  000C5C                     l739:
  2304  000C5C  B040               	btfsc	digitalWrite@value,0,c
  2305  000C5E  D002               	bra	u3615
  2306  000C60  9A8B               	bcf	3979,5,c	;volatile
  2307  000C62  D001               	bra	u3616
  2308  000C64                     u3615:
  2309  000C64  8A8B               	bsf	3979,5,c	;volatile
  2310  000C66                     u3616:
  2311  000C66  0012               	return	
  2312  000C68                     l740:
  2313  000C68  B040               	btfsc	digitalWrite@value,0,c
  2314  000C6A  D002               	bra	u3625
  2315  000C6C  9C8B               	bcf	3979,6,c	;volatile
  2316  000C6E  D001               	bra	u3626
  2317  000C70                     u3625:
  2318  000C70  8C8B               	bsf	3979,6,c	;volatile
  2319  000C72                     u3626:
  2320  000C72  0012               	return	
  2321  000C74                     l741:
  2322  000C74  B040               	btfsc	digitalWrite@value,0,c
  2323  000C76  D002               	bra	u3635
  2324  000C78  9E8B               	bcf	3979,7,c	;volatile
  2325  000C7A  D001               	bra	u3636
  2326  000C7C                     u3635:
  2327  000C7C  8E8B               	bsf	3979,7,c	;volatile
  2328  000C7E                     u3636:
  2329  000C7E  0012               	return	
  2330  000C80                     l742:
  2331  000C80  B040               	btfsc	digitalWrite@value,0,c
  2332  000C82  D002               	bra	u3645
  2333  000C84  908C               	bcf	3980,0,c	;volatile
  2334  000C86  D001               	bra	u3646
  2335  000C88                     u3645:
  2336  000C88  808C               	bsf	3980,0,c	;volatile
  2337  000C8A                     u3646:
  2338  000C8A  0012               	return	
  2339  000C8C                     l743:
  2340  000C8C  B040               	btfsc	digitalWrite@value,0,c
  2341  000C8E  D002               	bra	u3655
  2342  000C90  928C               	bcf	3980,1,c	;volatile
  2343  000C92  D001               	bra	u3656
  2344  000C94                     u3655:
  2345  000C94  828C               	bsf	3980,1,c	;volatile
  2346  000C96                     u3656:
  2347  000C96  0012               	return	
  2348  000C98                     l744:
  2349  000C98  B040               	btfsc	digitalWrite@value,0,c
  2350  000C9A  D002               	bra	u3665
  2351  000C9C  948C               	bcf	3980,2,c	;volatile
  2352  000C9E  D001               	bra	u3666
  2353  000CA0                     u3665:
  2354  000CA0  848C               	bsf	3980,2,c	;volatile
  2355  000CA2                     u3666:
  2356  000CA2  0012               	return	
  2357  000CA4                     l745:
  2358  000CA4  B040               	btfsc	digitalWrite@value,0,c
  2359  000CA6  D002               	bra	u3675
  2360  000CA8  968C               	bcf	3980,3,c	;volatile
  2361  000CAA  D001               	bra	u3676
  2362  000CAC                     u3675:
  2363  000CAC  868C               	bsf	3980,3,c	;volatile
  2364  000CAE                     u3676:
  2365  000CAE  0012               	return	
  2366  000CB0                     l746:
  2367  000CB0  B040               	btfsc	digitalWrite@value,0,c
  2368  000CB2  D002               	bra	u3685
  2369  000CB4  988C               	bcf	3980,4,c	;volatile
  2370  000CB6  D001               	bra	u3686
  2371  000CB8                     u3685:
  2372  000CB8  888C               	bsf	3980,4,c	;volatile
  2373  000CBA                     u3686:
  2374  000CBA  0012               	return	
  2375  000CBC                     l747:
  2376  000CBC  B040               	btfsc	digitalWrite@value,0,c
  2377  000CBE  D002               	bra	u3695
  2378  000CC0  9A8C               	bcf	3980,5,c	;volatile
  2379  000CC2  D001               	bra	u3696
  2380  000CC4                     u3695:
  2381  000CC4  8A8C               	bsf	3980,5,c	;volatile
  2382  000CC6                     u3696:
  2383  000CC6  0012               	return	
  2384  000CC8                     l748:
  2385  000CC8  B040               	btfsc	digitalWrite@value,0,c
  2386  000CCA  D002               	bra	u3705
  2387  000CCC  9C8C               	bcf	3980,6,c	;volatile
  2388  000CCE  D001               	bra	u3706
  2389  000CD0                     u3705:
  2390  000CD0  8C8C               	bsf	3980,6,c	;volatile
  2391  000CD2                     u3706:
  2392  000CD2  0012               	return	
  2393  000CD4                     l749:
  2394  000CD4  B040               	btfsc	digitalWrite@value,0,c
  2395  000CD6  D002               	bra	u3715
  2396  000CD8  9E8C               	bcf	3980,7,c	;volatile
  2397  000CDA  D001               	bra	u3716
  2398  000CDC                     u3715:
  2399  000CDC  8E8C               	bsf	3980,7,c	;volatile
  2400  000CDE                     u3716:
  2401  000CDE  0012               	return	
  2402  000CE0                     l750:
  2403  000CE0  B040               	btfsc	digitalWrite@value,0,c
  2404  000CE2  D002               	bra	u3725
  2405  000CE4  908D               	bcf	3981,0,c	;volatile
  2406  000CE6  D001               	bra	u3726
  2407  000CE8                     u3725:
  2408  000CE8  808D               	bsf	3981,0,c	;volatile
  2409  000CEA                     u3726:
  2410  000CEA  0012               	return	
  2411  000CEC                     l751:
  2412  000CEC  B040               	btfsc	digitalWrite@value,0,c
  2413  000CEE  D002               	bra	u3735
  2414  000CF0  928D               	bcf	3981,1,c	;volatile
  2415  000CF2  D001               	bra	u3736
  2416  000CF4                     u3735:
  2417  000CF4  828D               	bsf	3981,1,c	;volatile
  2418  000CF6                     u3736:
  2419  000CF6  0012               	return	
  2420  000CF8                     l752:
  2421  000CF8  B040               	btfsc	digitalWrite@value,0,c
  2422  000CFA  D002               	bra	u3745
  2423  000CFC  948D               	bcf	3981,2,c	;volatile
  2424  000CFE  D001               	bra	u3746
  2425  000D00                     u3745:
  2426  000D00  848D               	bsf	3981,2,c	;volatile
  2427  000D02                     u3746:
  2428  000D02  0012               	return	
  2429  000D04                     l3999:
  2430  000D04  5041               	movf	digitalWrite@pin,w,c
  2431                           
  2432                           ; Switch size 1, requested type "space"
  2433                           ; Number of cases is 35, Range of values is 0 to 34
  2434                           ; switch strategies available:
  2435                           ; Name         Instructions Cycles
  2436                           ; simple_byte          106    54 (average)
  2437                           ;	Chosen strategy is simple_byte
  2438  000D06  0A00               	xorlw	0	; case 0
  2439  000D08  B4D8               	btfsc	status,2,c
  2440  000D0A  D72A               	goto	l717
  2441  000D0C  0A01               	xorlw	1	; case 1
  2442  000D0E  B4D8               	btfsc	status,2,c
  2443  000D10  D72D               	goto	l719
  2444  000D12  0A03               	xorlw	3	; case 2
  2445  000D14  B4D8               	btfsc	status,2,c
  2446  000D16  D730               	goto	l720
  2447  000D18  0A01               	xorlw	1	; case 3
  2448  000D1A  B4D8               	btfsc	status,2,c
  2449  000D1C  D733               	goto	l721
  2450  000D1E  0A07               	xorlw	7	; case 4
  2451  000D20  B4D8               	btfsc	status,2,c
  2452  000D22  D736               	goto	l722
  2453  000D24  0A01               	xorlw	1	; case 5
  2454  000D26  B4D8               	btfsc	status,2,c
  2455  000D28  D739               	goto	l723
  2456  000D2A  0A03               	xorlw	3	; case 6
  2457  000D2C  B4D8               	btfsc	status,2,c
  2458  000D2E  D73C               	goto	l724
  2459  000D30  0A01               	xorlw	1	; case 7
  2460  000D32  B4D8               	btfsc	status,2,c
  2461  000D34  D73F               	goto	l725
  2462  000D36  0A0F               	xorlw	15	; case 8
  2463  000D38  B4D8               	btfsc	status,2,c
  2464  000D3A  D742               	goto	l726
  2465  000D3C  0A01               	xorlw	1	; case 9
  2466  000D3E  B4D8               	btfsc	status,2,c
  2467  000D40  D745               	goto	l727
  2468  000D42  0A03               	xorlw	3	; case 10
  2469  000D44  B4D8               	btfsc	status,2,c
  2470  000D46  D748               	goto	l728
  2471  000D48  0A01               	xorlw	1	; case 11
  2472  000D4A  B4D8               	btfsc	status,2,c
  2473  000D4C  D74B               	goto	l729
  2474  000D4E  0A07               	xorlw	7	; case 12
  2475  000D50  B4D8               	btfsc	status,2,c
  2476  000D52  D74E               	goto	l730
  2477  000D54  0A01               	xorlw	1	; case 13
  2478  000D56  B4D8               	btfsc	status,2,c
  2479  000D58  D751               	goto	l731
  2480  000D5A  0A03               	xorlw	3	; case 14
  2481  000D5C  B4D8               	btfsc	status,2,c
  2482  000D5E  D754               	goto	l732
  2483  000D60  0A01               	xorlw	1	; case 15
  2484  000D62  B4D8               	btfsc	status,2,c
  2485  000D64  D757               	goto	l733
  2486  000D66  0A1F               	xorlw	31	; case 16
  2487  000D68  B4D8               	btfsc	status,2,c
  2488  000D6A  D75A               	goto	l734
  2489  000D6C  0A01               	xorlw	1	; case 17
  2490  000D6E  B4D8               	btfsc	status,2,c
  2491  000D70  D75D               	goto	l735
  2492  000D72  0A03               	xorlw	3	; case 18
  2493  000D74  B4D8               	btfsc	status,2,c
  2494  000D76  D760               	goto	l736
  2495  000D78  0A01               	xorlw	1	; case 19
  2496  000D7A  B4D8               	btfsc	status,2,c
  2497  000D7C  D763               	goto	l737
  2498  000D7E  0A07               	xorlw	7	; case 20
  2499  000D80  B4D8               	btfsc	status,2,c
  2500  000D82  D766               	goto	l738
  2501  000D84  0A01               	xorlw	1	; case 21
  2502  000D86  B4D8               	btfsc	status,2,c
  2503  000D88  D769               	goto	l739
  2504  000D8A  0A03               	xorlw	3	; case 22
  2505  000D8C  B4D8               	btfsc	status,2,c
  2506  000D8E  D76C               	goto	l740
  2507  000D90  0A01               	xorlw	1	; case 23
  2508  000D92  B4D8               	btfsc	status,2,c
  2509  000D94  D76F               	goto	l741
  2510  000D96  0A0F               	xorlw	15	; case 24
  2511  000D98  B4D8               	btfsc	status,2,c
  2512  000D9A  D772               	goto	l742
  2513  000D9C  0A01               	xorlw	1	; case 25
  2514  000D9E  B4D8               	btfsc	status,2,c
  2515  000DA0  D775               	goto	l743
  2516  000DA2  0A03               	xorlw	3	; case 26
  2517  000DA4  B4D8               	btfsc	status,2,c
  2518  000DA6  D778               	goto	l744
  2519  000DA8  0A01               	xorlw	1	; case 27
  2520  000DAA  B4D8               	btfsc	status,2,c
  2521  000DAC  D77B               	goto	l745
  2522  000DAE  0A07               	xorlw	7	; case 28
  2523  000DB0  B4D8               	btfsc	status,2,c
  2524  000DB2  D77E               	goto	l746
  2525  000DB4  0A01               	xorlw	1	; case 29
  2526  000DB6  B4D8               	btfsc	status,2,c
  2527  000DB8  D781               	goto	l747
  2528  000DBA  0A03               	xorlw	3	; case 30
  2529  000DBC  B4D8               	btfsc	status,2,c
  2530  000DBE  D784               	goto	l748
  2531  000DC0  0A01               	xorlw	1	; case 31
  2532  000DC2  B4D8               	btfsc	status,2,c
  2533  000DC4  D787               	goto	l749
  2534  000DC6  0A3F               	xorlw	63	; case 32
  2535  000DC8  B4D8               	btfsc	status,2,c
  2536  000DCA  D78A               	goto	l750
  2537  000DCC  0A01               	xorlw	1	; case 33
  2538  000DCE  B4D8               	btfsc	status,2,c
  2539  000DD0  D78D               	goto	l751
  2540  000DD2  0A03               	xorlw	3	; case 34
  2541  000DD4  A4D8               	btfss	status,2,c
  2542  000DD6  0012               	return	
  2543  000DD8  D78F               	goto	l752
  2544  000DDA                     __end_of_digitalWrite:
  2545                           	opt stack 0
  2546                           tblptru	equ	0xFF8
  2547                           tblptrh	equ	0xFF7
  2548                           tblptrl	equ	0xFF6
  2549                           tablat	equ	0xFF5
  2550                           prodl	equ	0xFF3
  2551                           postinc0	equ	0xFEE
  2552                           wreg	equ	0xFE8
  2553                           postdec1	equ	0xFE5
  2554                           fsr1l	equ	0xFE1
  2555                           status	equ	0xFD8
  2556                           
  2557 ;; *************** function _e_pulse *****************
  2558 ;; Defined at:
  2559 ;;		line 1767 in file "../../picuno/picuno.c"
  2560 ;; Parameters:    Size  Location     Type
  2561 ;;  k               1    wreg     unsigned char 
  2562 ;; Auto vars:     Size  Location     Type
  2563 ;;  k               1   20[COMRAM] unsigned char 
  2564 ;;  dd              1   21[COMRAM] unsigned char 
  2565 ;; Return value:  Size  Location     Type
  2566 ;;		None               void
  2567 ;; Registers used:
  2568 ;;		wreg, status,2, status,0, cstack
  2569 ;; Tracked objects:
  2570 ;;		On entry : 0/0
  2571 ;;		On exit  : 0/0
  2572 ;;		Unchanged: 0/0
  2573 ;; Data sizes:     COMRAM   BANK0   BANK1   BANK2   BANK3   BANK4   BANK5
  2574 ;;      Params:         0       0       0       0       0       0       0
  2575 ;;      Locals:         2       0       0       0       0       0       0
  2576 ;;      Temps:          0       0       0       0       0       0       0
  2577 ;;      Totals:         2       0       0       0       0       0       0
  2578 ;;Total ram usage:        2 bytes
  2579 ;; Hardware stack levels used:    1
  2580 ;; Hardware stack levels required when called:    5
  2581 ;; This function calls:
  2582 ;;		_i2c_out
  2583 ;; This function is called by:
  2584 ;;		_lcd_putdata
  2585 ;;		_lcd_putc
  2586 ;;		_lcd_begin
  2587 ;; This function uses a non-reentrant model
  2588 ;;
  2589                           
  2590                           	psect	text12
  2591  001470                     __ptext12:
  2592                           	opt stack 0
  2593  001470                     _e_pulse:
  2594                           	opt stack 22
  2595                           
  2596                           ;incstack = 0
  2597                           ;e_pulse@k stored from wreg
  2598  001470  6E43               	movwf	e_pulse@k,c
  2599                           
  2600                           ;picuno.c: 1769: byte dd = k;
  2601  001472  C043  F044         	movff	e_pulse@k,e_pulse@dd
  2602                           
  2603                           ;picuno.c: 1770: dd |= 0b00000100;
  2604  001476  8444               	bsf	e_pulse@dd,2,c
  2605                           
  2606                           ;picuno.c: 1771: i2c_out(_Addr,dd);
  2607  001478  C044  F041         	movff	e_pulse@dd,i2c_out@data
  2608  00147C  5006               	movf	__Addr,w,c
  2609  00147E  ECAF  F009         	call	_i2c_out
  2610                           
  2611                           ;picuno.c: 1772: __nop(); __nop(); __nop(); __nop();
  2612  001482  F000               	nop	
  2613  001484  F000               	nop	
  2614  001486  F000               	nop	
  2615  001488  F000               	nop	
  2616                           
  2617                           ;picuno.c: 1773: dd &= 0b11111011;
  2618  00148A  9444               	bcf	e_pulse@dd,2,c
  2619                           
  2620                           ;picuno.c: 1774: i2c_out(_Addr,dd);
  2621  00148C  C044  F041         	movff	e_pulse@dd,i2c_out@data
  2622  001490  5006               	movf	__Addr,w,c
  2623  001492  ECAF  F009         	call	_i2c_out
  2624                           
  2625                           ;picuno.c: 1775: __nop(); __nop(); __nop(); __nop();
  2626  001496  F000               	nop	
  2627  001498  F000               	nop	
  2628  00149A  F000               	nop	
  2629  00149C  F000               	nop	
  2630  00149E  0012               	return	
  2631  0014A0                     __end_of_e_pulse:
  2632                           	opt stack 0
  2633                           tblptru	equ	0xFF8
  2634                           tblptrh	equ	0xFF7
  2635                           tblptrl	equ	0xFF6
  2636                           tablat	equ	0xFF5
  2637                           prodl	equ	0xFF3
  2638                           postinc0	equ	0xFEE
  2639                           wreg	equ	0xFE8
  2640                           postdec1	equ	0xFE5
  2641                           fsr1l	equ	0xFE1
  2642                           status	equ	0xFD8
  2643                           
  2644 ;; *************** function _i2c_out *****************
  2645 ;; Defined at:
  2646 ;;		line 2664 in file "../../picuno/picuno.c"
  2647 ;; Parameters:    Size  Location     Type
  2648 ;;  slave_addres    1    wreg     unsigned char 
  2649 ;;  data            1   18[COMRAM] unsigned char 
  2650 ;; Auto vars:     Size  Location     Type
  2651 ;;  slave_addres    1   19[COMRAM] unsigned char 
  2652 ;; Return value:  Size  Location     Type
  2653 ;;		None               void
  2654 ;; Registers used:
  2655 ;;		wreg, status,2, status,0, cstack
  2656 ;; Tracked objects:
  2657 ;;		On entry : 0/0
  2658 ;;		On exit  : 0/0
  2659 ;;		Unchanged: 0/0
  2660 ;; Data sizes:     COMRAM   BANK0   BANK1   BANK2   BANK3   BANK4   BANK5
  2661 ;;      Params:         1       0       0       0       0       0       0
  2662 ;;      Locals:         1       0       0       0       0       0       0
  2663 ;;      Temps:          0       0       0       0       0       0       0
  2664 ;;      Totals:         2       0       0       0       0       0       0
  2665 ;;Total ram usage:        2 bytes
  2666 ;; Hardware stack levels used:    1
  2667 ;; Hardware stack levels required when called:    4
  2668 ;; This function calls:
  2669 ;;		_i2c_idle
  2670 ;; This function is called by:
  2671 ;;		_e_pulse
  2672 ;;		_lcd_putdata
  2673 ;;		_lcd_putc
  2674 ;;		_lcd_begin
  2675 ;; This function uses a non-reentrant model
  2676 ;;
  2677                           
  2678                           	psect	text13
  2679  00135E                     __ptext13:
  2680                           	opt stack 0
  2681  00135E                     _i2c_out:
  2682                           	opt stack 23
  2683                           
  2684                           ;incstack = 0
  2685                           ;i2c_out@slave_address stored from wreg
  2686  00135E  6E42               	movwf	i2c_out@slave_address,c
  2687                           
  2688                           ;picuno.c: 2667: i2c_error_flag = 0;
  2689  001360  0E00               	movlw	0
  2690  001362  0100               	movlb	0	; () banked
  2691  001364  6FC9               	movwf	_i2c_error_flag& (0+255),b
  2692                           
  2693                           ; BSR set to: 0
  2694                           ;picuno.c: 2670: SSPCON2bits.SEN = 1;
  2695  001366  80C5               	bsf	4037,0,c	;volatile
  2696  001368                     l1212:
  2697  001368  B0C5               	btfsc	4037,0,c	;volatile
  2698  00136A  D7FE               	goto	l1212
  2699                           
  2700                           ;picuno.c: 2674: SSP1BUF = (slave_address << 1) & 0xFE;
  2701  00136C  5042               	movf	i2c_out@slave_address,w,c
  2702  00136E  2442               	addwf	i2c_out@slave_address,w,c
  2703  001370  0BFE               	andlw	254
  2704  001372  6EC9               	movwf	4041,c	;volatile
  2705                           
  2706                           ;picuno.c: 2677: i2c_idle();
  2707  001374  ECB2  F00A         	call	_i2c_idle	;wreg free
  2708                           
  2709                           ;picuno.c: 2679: if(SSPCON2bits.ACKSTAT == 1)
  2710  001378  ACC5               	btfss	4037,6,c	;volatile
  2711  00137A  D007               	goto	l1215
  2712                           
  2713                           ;picuno.c: 2680: {
  2714                           ;picuno.c: 2682: SSPCON2bits.PEN = 1;
  2715  00137C  84C5               	bsf	4037,2,c	;volatile
  2716  00137E                     l1216:
  2717  00137E  B4C5               	btfsc	4037,2,c	;volatile
  2718  001380  D7FE               	goto	l1216
  2719                           
  2720                           ;picuno.c: 2686: i2c_error_flag = 1;
  2721  001382  0E01               	movlw	1
  2722  001384  0100               	movlb	0	; () banked
  2723  001386  6FC9               	movwf	_i2c_error_flag& (0+255),b
  2724  001388  0012               	return	
  2725  00138A                     l1215:
  2726                           
  2727                           ;picuno.c: 2688: }
  2728                           ;picuno.c: 2691: SSP1BUF = data;
  2729  00138A  C041  FFC9         	movff	i2c_out@data,4041	;volatile
  2730                           
  2731                           ;picuno.c: 2694: i2c_idle();
  2732  00138E  ECB2  F00A         	call	_i2c_idle	;wreg free
  2733                           
  2734                           ;picuno.c: 2696: if(SSPCON2bits.ACKSTAT == 1)
  2735  001392  ACC5               	btfss	4037,6,c	;volatile
  2736  001394  D007               	goto	l1220
  2737                           
  2738                           ;picuno.c: 2697: {
  2739                           ;picuno.c: 2699: SSPCON2bits.PEN = 1;
  2740  001396  84C5               	bsf	4037,2,c	;volatile
  2741  001398                     l1221:
  2742  001398  B4C5               	btfsc	4037,2,c	;volatile
  2743  00139A  D7FE               	goto	l1221
  2744                           
  2745                           ;picuno.c: 2703: i2c_error_flag = 1;
  2746  00139C  0E01               	movlw	1
  2747  00139E  0100               	movlb	0	; () banked
  2748  0013A0  6FC9               	movwf	_i2c_error_flag& (0+255),b
  2749  0013A2  0012               	return	
  2750  0013A4                     l1220:
  2751                           
  2752                           ;picuno.c: 2705: }
  2753                           ;picuno.c: 2708: SSPCON2bits.PEN = 1;
  2754  0013A4  84C5               	bsf	4037,2,c	;volatile
  2755  0013A6                     l1224:
  2756  0013A6  B4C5               	btfsc	4037,2,c	;volatile
  2757  0013A8  D7FE               	goto	l1224
  2758                           
  2759                           ;picuno.c: 2712: i2c_error_flag = 0;
  2760  0013AA  0E00               	movlw	0
  2761  0013AC  0100               	movlb	0	; () banked
  2762  0013AE  6FC9               	movwf	_i2c_error_flag& (0+255),b
  2763                           
  2764                           ; BSR set to: 0
  2765  0013B0  0012               	return	
  2766  0013B2                     __end_of_i2c_out:
  2767                           	opt stack 0
  2768                           tblptru	equ	0xFF8
  2769                           tblptrh	equ	0xFF7
  2770                           tblptrl	equ	0xFF6
  2771                           tablat	equ	0xFF5
  2772                           prodl	equ	0xFF3
  2773                           postinc0	equ	0xFEE
  2774                           wreg	equ	0xFE8
  2775                           postdec1	equ	0xFE5
  2776                           fsr1l	equ	0xFE1
  2777                           status	equ	0xFD8
  2778                           
  2779 ;; *************** function _i2c_idle *****************
  2780 ;; Defined at:
  2781 ;;		line 2657 in file "../../picuno/picuno.c"
  2782 ;; Parameters:    Size  Location     Type
  2783 ;;		None
  2784 ;; Auto vars:     Size  Location     Type
  2785 ;;		None
  2786 ;; Return value:  Size  Location     Type
  2787 ;;		None               void
  2788 ;; Registers used:
  2789 ;;		wreg, status,2, status,0
  2790 ;; Tracked objects:
  2791 ;;		On entry : 0/0
  2792 ;;		On exit  : 0/0
  2793 ;;		Unchanged: 0/0
  2794 ;; Data sizes:     COMRAM   BANK0   BANK1   BANK2   BANK3   BANK4   BANK5
  2795 ;;      Params:         0       0       0       0       0       0       0
  2796 ;;      Locals:         0       0       0       0       0       0       0
  2797 ;;      Temps:          1       0       0       0       0       0       0
  2798 ;;      Totals:         1       0       0       0       0       0       0
  2799 ;;Total ram usage:        1 bytes
  2800 ;; Hardware stack levels used:    1
  2801 ;; Hardware stack levels required when called:    3
  2802 ;; This function calls:
  2803 ;;		Nothing
  2804 ;; This function is called by:
  2805 ;;		_i2c_out
  2806 ;;		_i2c_write
  2807 ;;		_i2c_read
  2808 ;; This function uses a non-reentrant model
  2809 ;;
  2810                           
  2811                           	psect	text14
  2812  001564                     __ptext14:
  2813                           	opt stack 0
  2814  001564                     _i2c_idle:
  2815                           	opt stack 23
  2816  001564                     l3993:
  2817  001564  A4C7               	btfss	4039,2,c	;volatile
  2818  001566  D003               	goto	u3380
  2819  001568  6A40               	clrf	??_i2c_idle& (0+255),c
  2820  00156A  2A40               	incf	??_i2c_idle& (0+255),f,c
  2821  00156C  D001               	goto	u3388
  2822  00156E                     u3380:
  2823  00156E  6A40               	clrf	??_i2c_idle& (0+255),c
  2824  001570                     u3388:
  2825  001570  50C5               	movf	4037,w,c	;volatile
  2826  001572  0B1F               	andlw	31
  2827  001574  1040               	iorwf	??_i2c_idle,w,c
  2828  001576  0900               	iorlw	0
  2829  001578  B4D8               	btfsc	status,2,c
  2830  00157A  0012               	return	
  2831  00157C  D7F3               	goto	l3993
  2832  00157E                     __end_of_i2c_idle:
  2833                           	opt stack 0
  2834                           tblptru	equ	0xFF8
  2835                           tblptrh	equ	0xFF7
  2836                           tblptrl	equ	0xFF6
  2837                           tablat	equ	0xFF5
  2838                           prodl	equ	0xFF3
  2839                           postinc0	equ	0xFEE
  2840                           wreg	equ	0xFE8
  2841                           postdec1	equ	0xFE5
  2842                           fsr1l	equ	0xFE1
  2843                           status	equ	0xFD8
  2844                           
  2845 ;; *************** function _lcdDelay *****************
  2846 ;; Defined at:
  2847 ;;		line 1755 in file "../../picuno/picuno.c"
  2848 ;; Parameters:    Size  Location     Type
  2849 ;;  ms              2   17[COMRAM] unsigned int 
  2850 ;; Auto vars:     Size  Location     Type
  2851 ;;  i               2   19[COMRAM] unsigned int 
  2852 ;; Return value:  Size  Location     Type
  2853 ;;		None               void
  2854 ;; Registers used:
  2855 ;;		wreg, status,2, status,0
  2856 ;; Tracked objects:
  2857 ;;		On entry : 0/0
  2858 ;;		On exit  : 0/0
  2859 ;;		Unchanged: 0/0
  2860 ;; Data sizes:     COMRAM   BANK0   BANK1   BANK2   BANK3   BANK4   BANK5
  2861 ;;      Params:         2       0       0       0       0       0       0
  2862 ;;      Locals:         2       0       0       0       0       0       0
  2863 ;;      Temps:          0       0       0       0       0       0       0
  2864 ;;      Totals:         4       0       0       0       0       0       0
  2865 ;;Total ram usage:        4 bytes
  2866 ;; Hardware stack levels used:    1
  2867 ;; Hardware stack levels required when called:    3
  2868 ;; This function calls:
  2869 ;;		Nothing
  2870 ;; This function is called by:
  2871 ;;		_lcd_setCursor
  2872 ;;		_lcd_begin
  2873 ;;		_lcd_clear
  2874 ;;		_lcd_home
  2875 ;;		_lcd_cursor
  2876 ;;		_lcd_noCursor
  2877 ;;		_lcd_blink
  2878 ;;		_lcd_noBlink
  2879 ;;		_lcd_display
  2880 ;;		_lcd_noDisplay
  2881 ;;		_lcd_line1
  2882 ;;		_lcd_line2
  2883 ;; This function uses a non-reentrant model
  2884 ;;
  2885                           
  2886                           	psect	text15
  2887  0014FA                     __ptext15:
  2888                           	opt stack 0
  2889  0014FA                     _lcdDelay:
  2890                           	opt stack 25
  2891                           
  2892                           ;picuno.c: 1757: unsigned int i;
  2893                           ;picuno.c: 1759: while(ms){
  2894                           
  2895                           ;incstack = 0
  2896  0014FA  D00F               	goto	l4357
  2897  0014FC                     l4349:
  2898                           
  2899                           ;picuno.c: 1760: ms--;
  2900  0014FC  0640               	decf	lcdDelay@ms,f,c
  2901  0014FE  A0D8               	btfss	status,0,c
  2902  001500  0641               	decf	lcdDelay@ms+1,f,c
  2903                           
  2904                           ;picuno.c: 1761: i=((64*16)+(64/4));
  2905  001502  0E04               	movlw	4
  2906  001504  6E43               	movwf	lcdDelay@i+1,c
  2907  001506  0E10               	movlw	16
  2908  001508  6E42               	movwf	lcdDelay@i,c
  2909                           
  2910                           ;picuno.c: 1762: while(i) i--;
  2911  00150A  D003               	goto	l4355
  2912  00150C                     l4353:
  2913  00150C  0642               	decf	lcdDelay@i,f,c
  2914  00150E  A0D8               	btfss	status,0,c
  2915  001510  0643               	decf	lcdDelay@i+1,f,c
  2916  001512                     l4355:
  2917  001512  5043               	movf	lcdDelay@i+1,w,c
  2918  001514  1042               	iorwf	lcdDelay@i,w,c
  2919  001516  A4D8               	btfss	status,2,c
  2920  001518  D7F9               	goto	l4353
  2921  00151A                     l4357:
  2922  00151A  5041               	movf	lcdDelay@ms+1,w,c
  2923  00151C  1040               	iorwf	lcdDelay@ms,w,c
  2924  00151E  B4D8               	btfsc	status,2,c
  2925  001520  0012               	return	
  2926  001522  D7EC               	goto	l4349
  2927  001524                     __end_of_lcdDelay:
  2928                           	opt stack 0
  2929                           tblptru	equ	0xFF8
  2930                           tblptrh	equ	0xFF7
  2931                           tblptrl	equ	0xFF6
  2932                           tablat	equ	0xFF5
  2933                           prodl	equ	0xFF3
  2934                           postinc0	equ	0xFEE
  2935                           wreg	equ	0xFE8
  2936                           postdec1	equ	0xFE5
  2937                           fsr1l	equ	0xFE1
  2938                           status	equ	0xFD8
  2939                           
  2940 ;; *************** function _delay *****************
  2941 ;; Defined at:
  2942 ;;		line 295 in file "../../picuno/picuno.c"
  2943 ;; Parameters:    Size  Location     Type
  2944 ;;  ms              2   17[COMRAM] unsigned int 
  2945 ;; Auto vars:     Size  Location     Type
  2946 ;;  i               2   19[COMRAM] unsigned int 
  2947 ;; Return value:  Size  Location     Type
  2948 ;;		None               void
  2949 ;; Registers used:
  2950 ;;		wreg, status,2, status,0
  2951 ;; Tracked objects:
  2952 ;;		On entry : 0/0
  2953 ;;		On exit  : 0/0
  2954 ;;		Unchanged: 0/0
  2955 ;; Data sizes:     COMRAM   BANK0   BANK1   BANK2   BANK3   BANK4   BANK5
  2956 ;;      Params:         2       0       0       0       0       0       0
  2957 ;;      Locals:         2       0       0       0       0       0       0
  2958 ;;      Temps:          0       0       0       0       0       0       0
  2959 ;;      Totals:         4       0       0       0       0       0       0
  2960 ;;Total ram usage:        4 bytes
  2961 ;; Hardware stack levels used:    1
  2962 ;; Hardware stack levels required when called:    3
  2963 ;; This function calls:
  2964 ;;		Nothing
  2965 ;; This function is called by:
  2966 ;;		_lcd_begin
  2967 ;; This function uses a non-reentrant model
  2968 ;;
  2969                           
  2970                           	psect	text16
  2971  0014CE                     __ptext16:
  2972                           	opt stack 0
  2973  0014CE                     _delay:
  2974                           	opt stack 24
  2975                           
  2976                           ;incstack = 0
  2977  0014CE  0004               	clrwdt		;# 
  2978                           
  2979                           ;picuno.c: 301: while(ms){
  2980  0014D0  D00F               	goto	l4099
  2981  0014D2                     l4091:
  2982                           
  2983                           ;picuno.c: 302: ms--;
  2984  0014D2  0640               	decf	delay@ms,f,c
  2985  0014D4  A0D8               	btfss	status,0,c
  2986  0014D6  0641               	decf	delay@ms+1,f,c
  2987                           
  2988                           ;picuno.c: 303: i=((64*16)+(64/4));
  2989  0014D8  0E04               	movlw	4
  2990  0014DA  6E43               	movwf	delay@i+1,c
  2991  0014DC  0E10               	movlw	16
  2992  0014DE  6E42               	movwf	delay@i,c
  2993                           
  2994                           ;picuno.c: 304: while(i) i--;
  2995  0014E0  D003               	goto	l4097
  2996  0014E2                     l4095:
  2997  0014E2  0642               	decf	delay@i,f,c
  2998  0014E4  A0D8               	btfss	status,0,c
  2999  0014E6  0643               	decf	delay@i+1,f,c
  3000  0014E8                     l4097:
  3001  0014E8  5043               	movf	delay@i+1,w,c
  3002  0014EA  1042               	iorwf	delay@i,w,c
  3003  0014EC  A4D8               	btfss	status,2,c
  3004  0014EE  D7F9               	goto	l4095
  3005  0014F0                     l4099:
  3006  0014F0  5041               	movf	delay@ms+1,w,c
  3007  0014F2  1040               	iorwf	delay@ms,w,c
  3008  0014F4  B4D8               	btfsc	status,2,c
  3009  0014F6  0012               	return	
  3010  0014F8  D7EC               	goto	l4091
  3011  0014FA                     __end_of_delay:
  3012                           	opt stack 0
  3013                           tblptru	equ	0xFF8
  3014                           tblptrh	equ	0xFF7
  3015                           tblptrl	equ	0xFF6
  3016                           tablat	equ	0xFF5
  3017                           prodl	equ	0xFF3
  3018                           postinc0	equ	0xFEE
  3019                           wreg	equ	0xFE8
  3020                           postdec1	equ	0xFE5
  3021                           fsr1l	equ	0xFE1
  3022                           status	equ	0xFD8
  3023                           
  3024 ;; *************** function _i2c_init *****************
  3025 ;; Defined at:
  3026 ;;		line 2623 in file "../../picuno/picuno.c"
  3027 ;; Parameters:    Size  Location     Type
  3028 ;;  c               4    5[BANK0 ] unsigned long 
  3029 ;; Auto vars:     Size  Location     Type
  3030 ;;		None
  3031 ;; Return value:  Size  Location     Type
  3032 ;;		None               void
  3033 ;; Registers used:
  3034 ;;		wreg, status,2, status,0, cstack
  3035 ;; Tracked objects:
  3036 ;;		On entry : 0/0
  3037 ;;		On exit  : 0/0
  3038 ;;		Unchanged: 0/0
  3039 ;; Data sizes:     COMRAM   BANK0   BANK1   BANK2   BANK3   BANK4   BANK5
  3040 ;;      Params:         0       4       0       0       0       0       0
  3041 ;;      Locals:         0       0       0       0       0       0       0
  3042 ;;      Temps:          0       8       0       0       0       0       0
  3043 ;;      Totals:         0      12       0       0       0       0       0
  3044 ;;Total ram usage:       12 bytes
  3045 ;; Hardware stack levels used:    1
  3046 ;; Hardware stack levels required when called:    5
  3047 ;; This function calls:
  3048 ;;		___lldiv
  3049 ;;		_pinMode
  3050 ;; This function is called by:
  3051 ;;		_lcd_init_i2c
  3052 ;; This function uses a non-reentrant model
  3053 ;;
  3054                           
  3055                           	psect	text17
  3056  0011D4                     __ptext17:
  3057                           	opt stack 0
  3058  0011D4                     _i2c_init:
  3059                           	opt stack 23
  3060                           
  3061                           ;picuno.c: 2626: SSPSTATbits.SMP = 1;
  3062                           
  3063                           ;incstack = 0
  3064  0011D4  8EC7               	bsf	4039,7,c	;volatile
  3065                           
  3066                           ;picuno.c: 2629: SSPCON1bits.SSPM3 = 1;
  3067  0011D6  86C6               	bsf	4038,3,c	;volatile
  3068                           
  3069                           ;picuno.c: 2630: SSPCON1bits.SSPM2 = 0;
  3070  0011D8  94C6               	bcf	4038,2,c	;volatile
  3071                           
  3072                           ;picuno.c: 2631: SSPCON1bits.SSPM1 = 0;
  3073  0011DA  92C6               	bcf	4038,1,c	;volatile
  3074                           
  3075                           ;picuno.c: 2632: SSPCON1bits.SSPM0 = 0;
  3076  0011DC  90C6               	bcf	4038,0,c	;volatile
  3077                           
  3078                           ;picuno.c: 2634: SSPADD = (64000000UL /(4*c))-1;
  3079  0011DE  0E00               	movlw	0
  3080  0011E0  6E40               	movwf	___lldiv@dividend,c
  3081  0011E2  0E90               	movlw	144
  3082  0011E4  6E41               	movwf	___lldiv@dividend+1,c
  3083  0011E6  0ED0               	movlw	208
  3084  0011E8  6E42               	movwf	___lldiv@dividend+2,c
  3085  0011EA  0E03               	movlw	3
  3086  0011EC  6E43               	movwf	___lldiv@dividend+3,c
  3087  0011EE  0100               	movlb	0	; () banked
  3088  0011F0  C0D4  F0D8         	movff	i2c_init@c,??_i2c_init
  3089  0011F4  0100               	movlb	0	; () banked
  3090  0011F6  C0D5  F0D9         	movff	i2c_init@c+1,??_i2c_init+1
  3091  0011FA  0100               	movlb	0	; () banked
  3092  0011FC  C0D6  F0DA         	movff	i2c_init@c+2,??_i2c_init+2
  3093  001200  0100               	movlb	0	; () banked
  3094  001202  C0D7  F0DB         	movff	i2c_init@c+3,??_i2c_init+3
  3095  001206  0E02               	movlw	2
  3096  001208                     u6415:
  3097  001208  90D8               	bcf	status,0,c
  3098  00120A  0100               	movlb	0	; () banked
  3099  00120C  37D8               	rlcf	??_i2c_init& (0+255),f,b
  3100  00120E  37D9               	rlcf	(??_i2c_init+1)& (0+255),f,b
  3101  001210  37DA               	rlcf	(??_i2c_init+2)& (0+255),f,b
  3102  001212  37DB               	rlcf	(??_i2c_init+3)& (0+255),f,b
  3103  001214  2EE8               	decfsz	wreg,f,c
  3104  001216  D7F8               	goto	u6415
  3105  001218  C0D8  F044         	movff	??_i2c_init,___lldiv@divisor
  3106  00121C  C0D9  F045         	movff	??_i2c_init+1,___lldiv@divisor+1
  3107  001220  C0DA  F046         	movff	??_i2c_init+2,___lldiv@divisor+2
  3108  001224  C0DB  F047         	movff	??_i2c_init+3,___lldiv@divisor+3
  3109  001228  EC4F  F008         	call	___lldiv	;wreg free
  3110  00122C  C040  F0DC         	movff	?___lldiv,??_i2c_init+4
  3111  001230  C041  F0DD         	movff	?___lldiv+1,??_i2c_init+5
  3112  001234  C042  F0DE         	movff	?___lldiv+2,??_i2c_init+6
  3113  001238  C043  F0DF         	movff	?___lldiv+3,??_i2c_init+7
  3114  00123C  0100               	movlb	0	; () banked
  3115  00123E  05DC               	decf	(??_i2c_init+4)& (0+255),w,b
  3116  001240  6EC8               	movwf	4040,c	;volatile
  3117                           
  3118                           ;picuno.c: 2635: pinMode(19,0x01);
  3119  001242  0E01               	movlw	1
  3120  001244  6E44               	movwf	pinMode@mode,c
  3121  001246  0E13               	movlw	19
  3122  001248  EC07  F003         	call	_pinMode
  3123                           
  3124                           ;picuno.c: 2636: pinMode(20,0x01);
  3125  00124C  0E01               	movlw	1
  3126  00124E  6E44               	movwf	pinMode@mode,c
  3127  001250  0E14               	movlw	20
  3128  001252  EC07  F003         	call	_pinMode
  3129                           
  3130                           ;picuno.c: 2639: SSPCON1bits.WCOL = 0;
  3131  001256  9EC6               	bcf	4038,7,c	;volatile
  3132                           
  3133                           ;picuno.c: 2642: SSPCON1bits.SSPOV = 0;
  3134  001258  9CC6               	bcf	4038,6,c	;volatile
  3135                           
  3136                           ;picuno.c: 2645: SSPCON1bits.SSPEN = 1;
  3137  00125A  8AC6               	bsf	4038,5,c	;volatile
  3138                           
  3139                           ;picuno.c: 2648: SSPCON2bits.PEN = 1;
  3140  00125C  84C5               	bsf	4037,2,c	;volatile
  3141  00125E                     l1197:
  3142  00125E  A4C5               	btfss	4037,2,c	;volatile
  3143  001260  0012               	return	
  3144  001262  D7FD               	goto	l1197
  3145  001264                     __end_of_i2c_init:
  3146                           	opt stack 0
  3147                           tblptru	equ	0xFF8
  3148                           tblptrh	equ	0xFF7
  3149                           tblptrl	equ	0xFF6
  3150                           tablat	equ	0xFF5
  3151                           prodl	equ	0xFF3
  3152                           postinc0	equ	0xFEE
  3153                           wreg	equ	0xFE8
  3154                           postdec1	equ	0xFE5
  3155                           fsr1l	equ	0xFE1
  3156                           status	equ	0xFD8
  3157                           
  3158 ;; *************** function _pinMode *****************
  3159 ;; Defined at:
  3160 ;;		line 494 in file "../../picuno/picuno.c"
  3161 ;; Parameters:    Size  Location     Type
  3162 ;;  pin             1    wreg     unsigned char 
  3163 ;;  mode            1   21[COMRAM] unsigned char 
  3164 ;; Auto vars:     Size  Location     Type
  3165 ;;  pin             1   22[COMRAM] unsigned char 
  3166 ;; Return value:  Size  Location     Type
  3167 ;;		None               void
  3168 ;; Registers used:
  3169 ;;		wreg, status,2, status,0, cstack
  3170 ;; Tracked objects:
  3171 ;;		On entry : 0/0
  3172 ;;		On exit  : 0/0
  3173 ;;		Unchanged: 0/0
  3174 ;; Data sizes:     COMRAM   BANK0   BANK1   BANK2   BANK3   BANK4   BANK5
  3175 ;;      Params:         1       0       0       0       0       0       0
  3176 ;;      Locals:         1       0       0       0       0       0       0
  3177 ;;      Temps:          0       0       0       0       0       0       0
  3178 ;;      Totals:         2       0       0       0       0       0       0
  3179 ;;Total ram usage:        2 bytes
  3180 ;; Hardware stack levels used:    1
  3181 ;; Hardware stack levels required when called:    4
  3182 ;; This function calls:
  3183 ;;		_analogInput
  3184 ;; This function is called by:
  3185 ;;		_i2c_init
  3186 ;;		_pulseIn
  3187 ;;		_keypad_begin34
  3188 ;;		_keypad_begin44
  3189 ;;		_lcd_init4
  3190 ;;		_lcd_init8
  3191 ;;		_pwm_on
  3192 ;; This function uses a non-reentrant model
  3193 ;;
  3194                           
  3195                           	psect	text18
  3196  00060E                     __ptext18:
  3197                           	opt stack 0
  3198  00060E                     _pinMode:
  3199                           	opt stack 23
  3200                           
  3201                           ;incstack = 0
  3202                           ;pinMode@pin stored from wreg
  3203  00060E  6E45               	movwf	pinMode@pin,c
  3204                           
  3205                           ;picuno.c: 496: switch(pin)
  3206  000610  D23A               	goto	l4345
  3207  000612                     l487:
  3208                           
  3209                           ;picuno.c: 499: if(mode==0x00)
  3210  000612  6644               	tstfsz	pinMode@mode,c
  3211  000614  D003               	goto	l4105
  3212                           
  3213                           ;picuno.c: 500: {
  3214                           ;picuno.c: 501: TRISAbits.TRISA0 = 0;
  3215  000616  9092               	bcf	3986,0,c	;volatile
  3216                           
  3217                           ;picuno.c: 502: LATAbits.LATA0 = 0;
  3218  000618  9089               	bcf	3977,0,c	;volatile
  3219                           
  3220                           ;picuno.c: 503: }
  3221  00061A  0012               	return	
  3222  00061C                     l4105:
  3223                           
  3224                           ;picuno.c: 504: else if(mode==0x02)
  3225  00061C  5044               	movf	pinMode@mode,w,c
  3226  00061E  0A02               	xorlw	2
  3227  000620  A4D8               	btfss	status,2,c
  3228  000622  D003               	goto	l4109
  3229                           
  3230                           ;picuno.c: 505: {
  3231                           ;picuno.c: 506: TRISAbits.TRISA0 = 1;
  3232  000624  8092               	bsf	3986,0,c	;volatile
  3233                           
  3234                           ;picuno.c: 507: LATAbits.LATA0 = 0;
  3235  000626  9089               	bcf	3977,0,c	;volatile
  3236                           
  3237                           ;picuno.c: 508: }
  3238  000628  0012               	return	
  3239  00062A                     l4109:
  3240                           
  3241                           ;picuno.c: 509: else if(mode==0x03)
  3242  00062A  5044               	movf	pinMode@mode,w,c
  3243  00062C  0A03               	xorlw	3
  3244  00062E  A4D8               	btfss	status,2,c
  3245  000630  D005               	goto	l492
  3246                           
  3247                           ;picuno.c: 510: {
  3248                           ;picuno.c: 511: TRISAbits.TRISA0 = 1;
  3249  000632  8092               	bsf	3986,0,c	;volatile
  3250                           
  3251                           ;picuno.c: 512: analogInput(0);
  3252  000634  0E00               	movlw	0
  3253  000636  EC92  F00A         	call	_analogInput
  3254                           
  3255                           ;picuno.c: 513: }
  3256  00063A  0012               	return	
  3257  00063C                     l492:
  3258                           
  3259                           ;picuno.c: 514: else
  3260                           ;picuno.c: 515: {
  3261                           ;picuno.c: 516: TRISAbits.TRISA0 = 1;
  3262  00063C  8092               	bsf	3986,0,c	;volatile
  3263                           
  3264                           ;picuno.c: 517: LATAbits.LATA0 = 0;
  3265  00063E  9089               	bcf	3977,0,c	;volatile
  3266  000640  0012               	return	
  3267  000642                     l495:
  3268                           
  3269                           ;picuno.c: 521: if(mode==0x00)
  3270  000642  6644               	tstfsz	pinMode@mode,c
  3271  000644  D003               	goto	l4117
  3272                           
  3273                           ;picuno.c: 522: {
  3274                           ;picuno.c: 523: TRISAbits.TRISA1 = 0;
  3275  000646  9292               	bcf	3986,1,c	;volatile
  3276                           
  3277                           ;picuno.c: 524: LATAbits.LATA1 = 0;
  3278  000648  9289               	bcf	3977,1,c	;volatile
  3279                           
  3280                           ;picuno.c: 525: }
  3281  00064A  0012               	return	
  3282  00064C                     l4117:
  3283                           
  3284                           ;picuno.c: 526: else if(mode==0x02)
  3285  00064C  5044               	movf	pinMode@mode,w,c
  3286  00064E  0A02               	xorlw	2
  3287  000650  A4D8               	btfss	status,2,c
  3288  000652  D003               	goto	l4121
  3289                           
  3290                           ;picuno.c: 527: {
  3291                           ;picuno.c: 528: TRISAbits.TRISA1 = 1;
  3292  000654  8292               	bsf	3986,1,c	;volatile
  3293                           
  3294                           ;picuno.c: 529: LATAbits.LATA1 = 0;
  3295  000656  9289               	bcf	3977,1,c	;volatile
  3296                           
  3297                           ;picuno.c: 530: }
  3298  000658  0012               	return	
  3299  00065A                     l4121:
  3300                           
  3301                           ;picuno.c: 531: else if(mode==0x03)
  3302  00065A  5044               	movf	pinMode@mode,w,c
  3303  00065C  0A03               	xorlw	3
  3304  00065E  A4D8               	btfss	status,2,c
  3305  000660  D005               	goto	l500
  3306                           
  3307                           ;picuno.c: 532: {
  3308                           ;picuno.c: 533: TRISAbits.TRISA1 = 1;
  3309  000662  8292               	bsf	3986,1,c	;volatile
  3310                           
  3311                           ;picuno.c: 534: analogInput(1);
  3312  000664  0E01               	movlw	1
  3313  000666  EC92  F00A         	call	_analogInput
  3314                           
  3315                           ;picuno.c: 535: }
  3316  00066A  0012               	return	
  3317  00066C                     l500:
  3318                           
  3319                           ;picuno.c: 536: else
  3320                           ;picuno.c: 537: {
  3321                           ;picuno.c: 538: TRISAbits.TRISA1 = 1;
  3322  00066C  8292               	bsf	3986,1,c	;volatile
  3323                           
  3324                           ;picuno.c: 539: LATAbits.LATA1 = 0;
  3325  00066E  9289               	bcf	3977,1,c	;volatile
  3326  000670  0012               	return	
  3327  000672                     l502:
  3328                           
  3329                           ;picuno.c: 543: if(mode==0x00)
  3330  000672  6644               	tstfsz	pinMode@mode,c
  3331  000674  D003               	goto	l4129
  3332                           
  3333                           ;picuno.c: 544: {
  3334                           ;picuno.c: 545: TRISAbits.TRISA2 = 0;
  3335  000676  9492               	bcf	3986,2,c	;volatile
  3336                           
  3337                           ;picuno.c: 546: LATAbits.LATA2 = 0;
  3338  000678  9489               	bcf	3977,2,c	;volatile
  3339                           
  3340                           ;picuno.c: 547: }
  3341  00067A  0012               	return	
  3342  00067C                     l4129:
  3343                           
  3344                           ;picuno.c: 548: else if(mode==0x02)
  3345  00067C  5044               	movf	pinMode@mode,w,c
  3346  00067E  0A02               	xorlw	2
  3347  000680  A4D8               	btfss	status,2,c
  3348  000682  D003               	goto	l4133
  3349                           
  3350                           ;picuno.c: 549: {
  3351                           ;picuno.c: 550: TRISAbits.TRISA2 = 1;
  3352  000684  8492               	bsf	3986,2,c	;volatile
  3353                           
  3354                           ;picuno.c: 551: LATAbits.LATA2 = 0;
  3355  000686  9489               	bcf	3977,2,c	;volatile
  3356                           
  3357                           ;picuno.c: 552: }
  3358  000688  0012               	return	
  3359  00068A                     l4133:
  3360                           
  3361                           ;picuno.c: 553: else if(mode==0x03)
  3362  00068A  5044               	movf	pinMode@mode,w,c
  3363  00068C  0A03               	xorlw	3
  3364  00068E  A4D8               	btfss	status,2,c
  3365  000690  D005               	goto	l507
  3366                           
  3367                           ;picuno.c: 554: {
  3368                           ;picuno.c: 555: TRISAbits.TRISA2 = 1;
  3369  000692  8492               	bsf	3986,2,c	;volatile
  3370                           
  3371                           ;picuno.c: 556: analogInput(2);
  3372  000694  0E02               	movlw	2
  3373  000696  EC92  F00A         	call	_analogInput
  3374                           
  3375                           ;picuno.c: 557: }
  3376  00069A  0012               	return	
  3377  00069C                     l507:
  3378                           
  3379                           ;picuno.c: 558: else
  3380                           ;picuno.c: 559: {
  3381                           ;picuno.c: 560: TRISAbits.TRISA2 = 1;
  3382  00069C  8492               	bsf	3986,2,c	;volatile
  3383                           
  3384                           ;picuno.c: 561: LATAbits.LATA2 = 0;
  3385  00069E  9489               	bcf	3977,2,c	;volatile
  3386  0006A0  0012               	return	
  3387  0006A2                     l509:
  3388                           
  3389                           ;picuno.c: 565: if(mode==0x00)
  3390  0006A2  6644               	tstfsz	pinMode@mode,c
  3391  0006A4  D003               	goto	l4141
  3392                           
  3393                           ;picuno.c: 566: {
  3394                           ;picuno.c: 567: TRISAbits.TRISA3 = 0;
  3395  0006A6  9692               	bcf	3986,3,c	;volatile
  3396                           
  3397                           ;picuno.c: 568: LATAbits.LATA3 = 0;
  3398  0006A8  9689               	bcf	3977,3,c	;volatile
  3399                           
  3400                           ;picuno.c: 569: }
  3401  0006AA  0012               	return	
  3402  0006AC                     l4141:
  3403                           
  3404                           ;picuno.c: 570: else if(mode==0x02)
  3405  0006AC  5044               	movf	pinMode@mode,w,c
  3406  0006AE  0A02               	xorlw	2
  3407  0006B0  A4D8               	btfss	status,2,c
  3408  0006B2  D003               	goto	l4145
  3409                           
  3410                           ;picuno.c: 571: {
  3411                           ;picuno.c: 572: TRISAbits.TRISA3 = 1;
  3412  0006B4  8692               	bsf	3986,3,c	;volatile
  3413                           
  3414                           ;picuno.c: 573: LATAbits.LATA3 = 0;
  3415  0006B6  9689               	bcf	3977,3,c	;volatile
  3416                           
  3417                           ;picuno.c: 574: }
  3418  0006B8  0012               	return	
  3419  0006BA                     l4145:
  3420                           
  3421                           ;picuno.c: 575: else if(mode==0x03)
  3422  0006BA  5044               	movf	pinMode@mode,w,c
  3423  0006BC  0A03               	xorlw	3
  3424  0006BE  A4D8               	btfss	status,2,c
  3425  0006C0  D005               	goto	l514
  3426                           
  3427                           ;picuno.c: 576: {
  3428                           ;picuno.c: 577: TRISAbits.TRISA3 = 1;
  3429  0006C2  8692               	bsf	3986,3,c	;volatile
  3430                           
  3431                           ;picuno.c: 578: analogInput(3);
  3432  0006C4  0E03               	movlw	3
  3433  0006C6  EC92  F00A         	call	_analogInput
  3434                           
  3435                           ;picuno.c: 579: }
  3436  0006CA  0012               	return	
  3437  0006CC                     l514:
  3438                           
  3439                           ;picuno.c: 580: else
  3440                           ;picuno.c: 581: {
  3441                           ;picuno.c: 582: TRISAbits.TRISA3 = 1;
  3442  0006CC  8692               	bsf	3986,3,c	;volatile
  3443                           
  3444                           ;picuno.c: 583: LATAbits.LATA3 = 0;
  3445  0006CE  9689               	bcf	3977,3,c	;volatile
  3446  0006D0  0012               	return	
  3447  0006D2                     l516:
  3448                           
  3449                           ;picuno.c: 590: if(mode==0x00)
  3450  0006D2  6644               	tstfsz	pinMode@mode,c
  3451  0006D4  D003               	goto	l4153
  3452                           
  3453                           ;picuno.c: 591: {
  3454                           ;picuno.c: 592: TRISAbits.TRISA4 = 0;
  3455  0006D6  9892               	bcf	3986,4,c	;volatile
  3456                           
  3457                           ;picuno.c: 593: LATAbits.LATA4 = 0;
  3458  0006D8  9889               	bcf	3977,4,c	;volatile
  3459                           
  3460                           ;picuno.c: 594: }
  3461  0006DA  0012               	return	
  3462  0006DC                     l4153:
  3463                           
  3464                           ;picuno.c: 595: else if(mode==0x02)
  3465  0006DC  5044               	movf	pinMode@mode,w,c
  3466  0006DE  0A02               	xorlw	2
  3467  0006E0  A4D8               	btfss	status,2,c
  3468  0006E2  D003               	goto	l519
  3469                           
  3470                           ;picuno.c: 596: {
  3471                           ;picuno.c: 597: TRISAbits.TRISA4 = 1;
  3472  0006E4  8892               	bsf	3986,4,c	;volatile
  3473                           
  3474                           ;picuno.c: 598: LATAbits.LATA4 = 0;
  3475  0006E6  9889               	bcf	3977,4,c	;volatile
  3476                           
  3477                           ;picuno.c: 599: }
  3478  0006E8  0012               	return	
  3479  0006EA                     l519:
  3480                           
  3481                           ;picuno.c: 600: else
  3482                           ;picuno.c: 601: {
  3483                           ;picuno.c: 602: TRISAbits.TRISA4 = 1;
  3484  0006EA  8892               	bsf	3986,4,c	;volatile
  3485                           
  3486                           ;picuno.c: 603: LATAbits.LATA4 = 0;
  3487  0006EC  9889               	bcf	3977,4,c	;volatile
  3488  0006EE  0012               	return	
  3489  0006F0                     l521:
  3490                           
  3491                           ;picuno.c: 609: if(mode==0x00)
  3492  0006F0  6644               	tstfsz	pinMode@mode,c
  3493  0006F2  D003               	goto	l4159
  3494                           
  3495                           ;picuno.c: 610: {
  3496                           ;picuno.c: 611: TRISAbits.TRISA5 = 0;
  3497  0006F4  9A92               	bcf	3986,5,c	;volatile
  3498                           
  3499                           ;picuno.c: 612: LATAbits.LATA5 = 0;
  3500  0006F6  9A89               	bcf	3977,5,c	;volatile
  3501                           
  3502                           ;picuno.c: 613: }
  3503  0006F8  0012               	return	
  3504  0006FA                     l4159:
  3505                           
  3506                           ;picuno.c: 614: else if(mode==0x02)
  3507  0006FA  5044               	movf	pinMode@mode,w,c
  3508  0006FC  0A02               	xorlw	2
  3509  0006FE  A4D8               	btfss	status,2,c
  3510  000700  D003               	goto	l4163
  3511                           
  3512                           ;picuno.c: 615: {
  3513                           ;picuno.c: 616: TRISAbits.TRISA5 = 1;
  3514  000702  8A92               	bsf	3986,5,c	;volatile
  3515                           
  3516                           ;picuno.c: 617: LATAbits.LATA5 = 0;
  3517  000704  9A89               	bcf	3977,5,c	;volatile
  3518                           
  3519                           ;picuno.c: 618: }
  3520  000706  0012               	return	
  3521  000708                     l4163:
  3522                           
  3523                           ;picuno.c: 619: else if(mode==0x03)
  3524  000708  5044               	movf	pinMode@mode,w,c
  3525  00070A  0A03               	xorlw	3
  3526  00070C  A4D8               	btfss	status,2,c
  3527  00070E  D005               	goto	l526
  3528                           
  3529                           ;picuno.c: 620: {
  3530                           ;picuno.c: 621: TRISAbits.TRISA5 = 1;
  3531  000710  8A92               	bsf	3986,5,c	;volatile
  3532                           
  3533                           ;picuno.c: 622: analogInput(4);
  3534  000712  0E04               	movlw	4
  3535  000714  EC92  F00A         	call	_analogInput
  3536                           
  3537                           ;picuno.c: 623: }
  3538  000718  0012               	return	
  3539  00071A                     l526:
  3540                           
  3541                           ;picuno.c: 624: else
  3542                           ;picuno.c: 625: {
  3543                           ;picuno.c: 626: TRISAbits.TRISA5 = 1;
  3544  00071A  8A92               	bsf	3986,5,c	;volatile
  3545                           
  3546                           ;picuno.c: 627: LATAbits.LATA5 = 0;
  3547  00071C  9A89               	bcf	3977,5,c	;volatile
  3548  00071E  0012               	return	
  3549  000720                     l528:
  3550                           
  3551                           ;picuno.c: 631: if(mode==0x00)
  3552  000720  6644               	tstfsz	pinMode@mode,c
  3553  000722  D003               	goto	l4171
  3554                           
  3555                           ;picuno.c: 632: {
  3556                           ;picuno.c: 633: TRISAbits.TRISA6 = 0;
  3557  000724  9C92               	bcf	3986,6,c	;volatile
  3558                           
  3559                           ;picuno.c: 634: LATAbits.LATA6 = 0;
  3560  000726  9C89               	bcf	3977,6,c	;volatile
  3561                           
  3562                           ;picuno.c: 635: }
  3563  000728  0012               	return	
  3564  00072A                     l4171:
  3565                           
  3566                           ;picuno.c: 636: else if(mode==0x02)
  3567  00072A  5044               	movf	pinMode@mode,w,c
  3568  00072C  0A02               	xorlw	2
  3569  00072E  A4D8               	btfss	status,2,c
  3570  000730  D003               	goto	l531
  3571                           
  3572                           ;picuno.c: 637: {
  3573                           ;picuno.c: 638: TRISAbits.TRISA6 = 1;
  3574  000732  8C92               	bsf	3986,6,c	;volatile
  3575                           
  3576                           ;picuno.c: 639: LATAbits.LATA6 = 0;
  3577  000734  9C89               	bcf	3977,6,c	;volatile
  3578                           
  3579                           ;picuno.c: 640: }
  3580  000736  0012               	return	
  3581  000738                     l531:
  3582                           
  3583                           ;picuno.c: 641: else
  3584                           ;picuno.c: 642: {
  3585                           ;picuno.c: 643: TRISAbits.TRISA6 = 1;
  3586  000738  8C92               	bsf	3986,6,c	;volatile
  3587                           
  3588                           ;picuno.c: 644: LATAbits.LATA6 = 0;
  3589  00073A  9C89               	bcf	3977,6,c	;volatile
  3590  00073C  0012               	return	
  3591  00073E                     l533:
  3592                           
  3593                           ;picuno.c: 650: if(mode==0x00)
  3594  00073E  6644               	tstfsz	pinMode@mode,c
  3595  000740  D003               	goto	l4177
  3596                           
  3597                           ;picuno.c: 651: {
  3598                           ;picuno.c: 652: TRISAbits.TRISA7 = 0;
  3599  000742  9E92               	bcf	3986,7,c	;volatile
  3600                           
  3601                           ;picuno.c: 653: LATAbits.LATA7 = 0;
  3602  000744  9E89               	bcf	3977,7,c	;volatile
  3603                           
  3604                           ;picuno.c: 654: }
  3605  000746  0012               	return	
  3606  000748                     l4177:
  3607                           
  3608                           ;picuno.c: 655: else if(mode==0x02)
  3609  000748  5044               	movf	pinMode@mode,w,c
  3610  00074A  0A02               	xorlw	2
  3611  00074C  A4D8               	btfss	status,2,c
  3612  00074E  D003               	goto	l536
  3613                           
  3614                           ;picuno.c: 656: {
  3615                           ;picuno.c: 657: TRISAbits.TRISA7 = 1;
  3616  000750  8E92               	bsf	3986,7,c	;volatile
  3617                           
  3618                           ;picuno.c: 658: LATAbits.LATA7 = 0;
  3619  000752  9E89               	bcf	3977,7,c	;volatile
  3620                           
  3621                           ;picuno.c: 659: }
  3622  000754  0012               	return	
  3623  000756                     l536:
  3624                           
  3625                           ;picuno.c: 660: else
  3626                           ;picuno.c: 661: {
  3627                           ;picuno.c: 662: TRISAbits.TRISA7 = 1;
  3628  000756  8E92               	bsf	3986,7,c	;volatile
  3629                           
  3630                           ;picuno.c: 663: LATAbits.LATA7 = 0;
  3631  000758  9E89               	bcf	3977,7,c	;volatile
  3632  00075A  0012               	return	
  3633  00075C                     l538:
  3634                           
  3635                           ;picuno.c: 668: if(mode==0x00)
  3636  00075C  6644               	tstfsz	pinMode@mode,c
  3637  00075E  D003               	goto	l4183
  3638                           
  3639                           ;picuno.c: 669: {
  3640                           ;picuno.c: 670: TRISBbits.TRISB0 = 0;
  3641  000760  9093               	bcf	3987,0,c	;volatile
  3642                           
  3643                           ;picuno.c: 671: LATBbits.LATB0 = 0;
  3644  000762  908A               	bcf	3978,0,c	;volatile
  3645                           
  3646                           ;picuno.c: 672: }
  3647  000764  0012               	return	
  3648  000766                     l4183:
  3649                           
  3650                           ;picuno.c: 673: else if(mode==0x02)
  3651  000766  5044               	movf	pinMode@mode,w,c
  3652  000768  0A02               	xorlw	2
  3653  00076A  A4D8               	btfss	status,2,c
  3654  00076C  D003               	goto	l541
  3655                           
  3656                           ;picuno.c: 674: {
  3657                           ;picuno.c: 675: TRISBbits.TRISB0 = 1;
  3658  00076E  8093               	bsf	3987,0,c	;volatile
  3659                           
  3660                           ;picuno.c: 676: LATBbits.LATB0 = 0;
  3661  000770  908A               	bcf	3978,0,c	;volatile
  3662                           
  3663                           ;picuno.c: 677: }
  3664  000772  0012               	return	
  3665  000774                     l541:
  3666                           
  3667                           ;picuno.c: 678: else
  3668                           ;picuno.c: 679: {
  3669                           ;picuno.c: 680: TRISBbits.TRISB0 = 1;
  3670  000774  8093               	bsf	3987,0,c	;volatile
  3671                           
  3672                           ;picuno.c: 681: LATBbits.LATB0 = 0;
  3673  000776  908A               	bcf	3978,0,c	;volatile
  3674  000778  0012               	return	
  3675  00077A                     l543:
  3676                           
  3677                           ;picuno.c: 685: if(mode==0x00)
  3678  00077A  6644               	tstfsz	pinMode@mode,c
  3679  00077C  D003               	goto	l4189
  3680                           
  3681                           ;picuno.c: 686: {
  3682                           ;picuno.c: 687: TRISBbits.TRISB1 = 0;
  3683  00077E  9293               	bcf	3987,1,c	;volatile
  3684                           
  3685                           ;picuno.c: 688: LATBbits.LATB1 = 0;
  3686  000780  928A               	bcf	3978,1,c	;volatile
  3687                           
  3688                           ;picuno.c: 689: }
  3689  000782  0012               	return	
  3690  000784                     l4189:
  3691                           
  3692                           ;picuno.c: 690: else if(mode==0x02)
  3693  000784  5044               	movf	pinMode@mode,w,c
  3694  000786  0A02               	xorlw	2
  3695  000788  A4D8               	btfss	status,2,c
  3696  00078A  D003               	goto	l546
  3697                           
  3698                           ;picuno.c: 691: {
  3699                           ;picuno.c: 692: TRISBbits.TRISB1 = 1;
  3700  00078C  8293               	bsf	3987,1,c	;volatile
  3701                           
  3702                           ;picuno.c: 693: LATBbits.LATB1 = 0;
  3703  00078E  928A               	bcf	3978,1,c	;volatile
  3704                           
  3705                           ;picuno.c: 694: }
  3706  000790  0012               	return	
  3707  000792                     l546:
  3708                           
  3709                           ;picuno.c: 695: else
  3710                           ;picuno.c: 696: {
  3711                           ;picuno.c: 697: TRISBbits.TRISB1 = 1;
  3712  000792  8293               	bsf	3987,1,c	;volatile
  3713                           
  3714                           ;picuno.c: 698: LATBbits.LATB1 = 0;
  3715  000794  928A               	bcf	3978,1,c	;volatile
  3716  000796  0012               	return	
  3717  000798                     l548:
  3718                           
  3719                           ;picuno.c: 702: if(mode==0x00)
  3720  000798  6644               	tstfsz	pinMode@mode,c
  3721  00079A  D003               	goto	l4195
  3722                           
  3723                           ;picuno.c: 703: {
  3724                           ;picuno.c: 704: TRISBbits.TRISB2 = 0;
  3725  00079C  9493               	bcf	3987,2,c	;volatile
  3726                           
  3727                           ;picuno.c: 705: LATBbits.LATB2 = 0;
  3728  00079E  948A               	bcf	3978,2,c	;volatile
  3729                           
  3730                           ;picuno.c: 706: }
  3731  0007A0  0012               	return	
  3732  0007A2                     l4195:
  3733                           
  3734                           ;picuno.c: 707: else if(mode==0x02)
  3735  0007A2  5044               	movf	pinMode@mode,w,c
  3736  0007A4  0A02               	xorlw	2
  3737  0007A6  A4D8               	btfss	status,2,c
  3738  0007A8  D003               	goto	l551
  3739                           
  3740                           ;picuno.c: 708: {
  3741                           ;picuno.c: 709: TRISBbits.TRISB2 = 1;
  3742  0007AA  8493               	bsf	3987,2,c	;volatile
  3743                           
  3744                           ;picuno.c: 710: LATBbits.LATB2 = 0;
  3745  0007AC  948A               	bcf	3978,2,c	;volatile
  3746                           
  3747                           ;picuno.c: 711: }
  3748  0007AE  0012               	return	
  3749  0007B0                     l551:
  3750                           
  3751                           ;picuno.c: 712: else
  3752                           ;picuno.c: 713: {
  3753                           ;picuno.c: 714: TRISBbits.TRISB2 = 1;
  3754  0007B0  8493               	bsf	3987,2,c	;volatile
  3755                           
  3756                           ;picuno.c: 715: LATBbits.LATB2 = 0;
  3757  0007B2  948A               	bcf	3978,2,c	;volatile
  3758  0007B4  0012               	return	
  3759  0007B6                     l553:
  3760                           
  3761                           ;picuno.c: 719: if(mode==0x00)
  3762  0007B6  6644               	tstfsz	pinMode@mode,c
  3763  0007B8  D003               	goto	l4201
  3764                           
  3765                           ;picuno.c: 720: {
  3766                           ;picuno.c: 721: TRISBbits.TRISB3 = 0;
  3767  0007BA  9693               	bcf	3987,3,c	;volatile
  3768                           
  3769                           ;picuno.c: 722: LATBbits.LATB3 = 0;
  3770  0007BC  968A               	bcf	3978,3,c	;volatile
  3771                           
  3772                           ;picuno.c: 723: }
  3773  0007BE  0012               	return	
  3774  0007C0                     l4201:
  3775                           
  3776                           ;picuno.c: 724: else if(mode==0x02)
  3777  0007C0  5044               	movf	pinMode@mode,w,c
  3778  0007C2  0A02               	xorlw	2
  3779  0007C4  A4D8               	btfss	status,2,c
  3780  0007C6  D003               	goto	l556
  3781                           
  3782                           ;picuno.c: 725: {
  3783                           ;picuno.c: 726: TRISBbits.TRISB3 = 1;
  3784  0007C8  8693               	bsf	3987,3,c	;volatile
  3785                           
  3786                           ;picuno.c: 727: LATBbits.LATB3 = 0;
  3787  0007CA  968A               	bcf	3978,3,c	;volatile
  3788                           
  3789                           ;picuno.c: 728: }
  3790  0007CC  0012               	return	
  3791  0007CE                     l556:
  3792                           
  3793                           ;picuno.c: 729: else
  3794                           ;picuno.c: 730: {
  3795                           ;picuno.c: 731: TRISBbits.TRISB3 = 1;
  3796  0007CE  8693               	bsf	3987,3,c	;volatile
  3797                           
  3798                           ;picuno.c: 732: LATBbits.LATB3 = 0;
  3799  0007D0  968A               	bcf	3978,3,c	;volatile
  3800  0007D2  0012               	return	
  3801  0007D4                     l558:
  3802                           
  3803                           ;picuno.c: 736: if(mode==0x00)
  3804  0007D4  6644               	tstfsz	pinMode@mode,c
  3805  0007D6  D003               	goto	l4207
  3806                           
  3807                           ;picuno.c: 737: {
  3808                           ;picuno.c: 738: TRISBbits.TRISB4 = 0;
  3809  0007D8  9893               	bcf	3987,4,c	;volatile
  3810                           
  3811                           ;picuno.c: 739: LATBbits.LATB4 = 0;
  3812  0007DA  988A               	bcf	3978,4,c	;volatile
  3813                           
  3814                           ;picuno.c: 740: }
  3815  0007DC  0012               	return	
  3816  0007DE                     l4207:
  3817                           
  3818                           ;picuno.c: 741: else if(mode==0x02)
  3819  0007DE  5044               	movf	pinMode@mode,w,c
  3820  0007E0  0A02               	xorlw	2
  3821  0007E2  A4D8               	btfss	status,2,c
  3822  0007E4  D003               	goto	l561
  3823                           
  3824                           ;picuno.c: 742: {
  3825                           ;picuno.c: 743: TRISBbits.TRISB4 = 1;
  3826  0007E6  8893               	bsf	3987,4,c	;volatile
  3827                           
  3828                           ;picuno.c: 744: LATBbits.LATB4 = 0;
  3829  0007E8  988A               	bcf	3978,4,c	;volatile
  3830                           
  3831                           ;picuno.c: 745: }
  3832  0007EA  0012               	return	
  3833  0007EC                     l561:
  3834                           
  3835                           ;picuno.c: 746: else
  3836                           ;picuno.c: 747: {
  3837                           ;picuno.c: 748: TRISBbits.TRISB4 = 1;
  3838  0007EC  8893               	bsf	3987,4,c	;volatile
  3839                           
  3840                           ;picuno.c: 749: LATBbits.LATB4 = 0;
  3841  0007EE  988A               	bcf	3978,4,c	;volatile
  3842  0007F0  0012               	return	
  3843  0007F2                     l563:
  3844                           
  3845                           ;picuno.c: 753: if(mode==0x00)
  3846  0007F2  6644               	tstfsz	pinMode@mode,c
  3847  0007F4  D003               	goto	l4213
  3848                           
  3849                           ;picuno.c: 754: {
  3850                           ;picuno.c: 755: TRISBbits.TRISB5 = 0;
  3851  0007F6  9A93               	bcf	3987,5,c	;volatile
  3852                           
  3853                           ;picuno.c: 756: LATBbits.LATB5 = 0;
  3854  0007F8  9A8A               	bcf	3978,5,c	;volatile
  3855                           
  3856                           ;picuno.c: 757: }
  3857  0007FA  0012               	return	
  3858  0007FC                     l4213:
  3859                           
  3860                           ;picuno.c: 758: else if(mode==0x02)
  3861  0007FC  5044               	movf	pinMode@mode,w,c
  3862  0007FE  0A02               	xorlw	2
  3863  000800  A4D8               	btfss	status,2,c
  3864  000802  D003               	goto	l566
  3865                           
  3866                           ;picuno.c: 759: {
  3867                           ;picuno.c: 760: TRISBbits.TRISB5 = 1;
  3868  000804  8A93               	bsf	3987,5,c	;volatile
  3869                           
  3870                           ;picuno.c: 761: LATBbits.LATB5 = 0;
  3871  000806  9A8A               	bcf	3978,5,c	;volatile
  3872                           
  3873                           ;picuno.c: 762: }
  3874  000808  0012               	return	
  3875  00080A                     l566:
  3876                           
  3877                           ;picuno.c: 763: else
  3878                           ;picuno.c: 764: {
  3879                           ;picuno.c: 765: TRISBbits.TRISB5 = 1;
  3880  00080A  8A93               	bsf	3987,5,c	;volatile
  3881                           
  3882                           ;picuno.c: 766: LATBbits.LATB5 = 0;
  3883  00080C  9A8A               	bcf	3978,5,c	;volatile
  3884  00080E  0012               	return	
  3885  000810                     l568:
  3886                           
  3887                           ;picuno.c: 770: if(mode==0x00)
  3888  000810  6644               	tstfsz	pinMode@mode,c
  3889  000812  D003               	goto	l4219
  3890                           
  3891                           ;picuno.c: 771: {
  3892                           ;picuno.c: 772: TRISBbits.TRISB6 = 0;
  3893  000814  9C93               	bcf	3987,6,c	;volatile
  3894                           
  3895                           ;picuno.c: 773: LATBbits.LATB6 = 0;
  3896  000816  9C8A               	bcf	3978,6,c	;volatile
  3897                           
  3898                           ;picuno.c: 774: }
  3899  000818  0012               	return	
  3900  00081A                     l4219:
  3901                           
  3902                           ;picuno.c: 775: else if(mode==0x02)
  3903  00081A  5044               	movf	pinMode@mode,w,c
  3904  00081C  0A02               	xorlw	2
  3905  00081E  A4D8               	btfss	status,2,c
  3906  000820  D003               	goto	l571
  3907                           
  3908                           ;picuno.c: 776: {
  3909                           ;picuno.c: 777: TRISBbits.TRISB6 = 1;
  3910  000822  8C93               	bsf	3987,6,c	;volatile
  3911                           
  3912                           ;picuno.c: 778: LATBbits.LATB6 = 0;
  3913  000824  9C8A               	bcf	3978,6,c	;volatile
  3914                           
  3915                           ;picuno.c: 779: }
  3916  000826  0012               	return	
  3917  000828                     l571:
  3918                           
  3919                           ;picuno.c: 780: else
  3920                           ;picuno.c: 781: {
  3921                           ;picuno.c: 782: TRISBbits.TRISB6 = 1;
  3922  000828  8C93               	bsf	3987,6,c	;volatile
  3923                           
  3924                           ;picuno.c: 783: LATBbits.LATB6 = 0;
  3925  00082A  9C8A               	bcf	3978,6,c	;volatile
  3926  00082C  0012               	return	
  3927  00082E                     l573:
  3928                           
  3929                           ;picuno.c: 787: if(mode==0x00)
  3930  00082E  6644               	tstfsz	pinMode@mode,c
  3931  000830  D003               	goto	l4225
  3932                           
  3933                           ;picuno.c: 788: {
  3934                           ;picuno.c: 789: TRISBbits.TRISB7 = 0;
  3935  000832  9E93               	bcf	3987,7,c	;volatile
  3936                           
  3937                           ;picuno.c: 790: LATBbits.LATB7 = 0;
  3938  000834  9E8A               	bcf	3978,7,c	;volatile
  3939                           
  3940                           ;picuno.c: 791: }
  3941  000836  0012               	return	
  3942  000838                     l4225:
  3943                           
  3944                           ;picuno.c: 792: else if(mode==0x02)
  3945  000838  5044               	movf	pinMode@mode,w,c
  3946  00083A  0A02               	xorlw	2
  3947  00083C  A4D8               	btfss	status,2,c
  3948  00083E  D003               	goto	l576
  3949                           
  3950                           ;picuno.c: 793: {
  3951                           ;picuno.c: 794: TRISBbits.TRISB7 = 1;
  3952  000840  8E93               	bsf	3987,7,c	;volatile
  3953                           
  3954                           ;picuno.c: 795: LATBbits.LATB7 = 0;
  3955  000842  9E8A               	bcf	3978,7,c	;volatile
  3956                           
  3957                           ;picuno.c: 796: }
  3958  000844  0012               	return	
  3959  000846                     l576:
  3960                           
  3961                           ;picuno.c: 797: else
  3962                           ;picuno.c: 798: {
  3963                           ;picuno.c: 799: TRISBbits.TRISB7 = 1;
  3964  000846  8E93               	bsf	3987,7,c	;volatile
  3965                           
  3966                           ;picuno.c: 800: LATBbits.LATB7 = 0;
  3967  000848  9E8A               	bcf	3978,7,c	;volatile
  3968  00084A  0012               	return	
  3969  00084C                     l578:
  3970                           
  3971                           ;picuno.c: 804: if(mode==0x00)
  3972  00084C  6644               	tstfsz	pinMode@mode,c
  3973  00084E  D003               	goto	l4231
  3974                           
  3975                           ;picuno.c: 805: {
  3976                           ;picuno.c: 806: TRISCbits.TRISC0 = 0;
  3977  000850  9094               	bcf	3988,0,c	;volatile
  3978                           
  3979                           ;picuno.c: 807: LATCbits.LATC0 = 0;
  3980  000852  908B               	bcf	3979,0,c	;volatile
  3981                           
  3982                           ;picuno.c: 808: }
  3983  000854  0012               	return	
  3984  000856                     l4231:
  3985                           
  3986                           ;picuno.c: 809: else if(mode==0x02)
  3987  000856  5044               	movf	pinMode@mode,w,c
  3988  000858  0A02               	xorlw	2
  3989  00085A  A4D8               	btfss	status,2,c
  3990  00085C  D003               	goto	l581
  3991                           
  3992                           ;picuno.c: 810: {
  3993                           ;picuno.c: 811: TRISCbits.TRISC0 = 1;
  3994  00085E  8094               	bsf	3988,0,c	;volatile
  3995                           
  3996                           ;picuno.c: 812: LATCbits.LATC0 = 0;
  3997  000860  908B               	bcf	3979,0,c	;volatile
  3998                           
  3999                           ;picuno.c: 813: }
  4000  000862  0012               	return	
  4001  000864                     l581:
  4002                           
  4003                           ;picuno.c: 814: else
  4004                           ;picuno.c: 815: {
  4005                           ;picuno.c: 816: TRISCbits.TRISC0 = 1;
  4006  000864  8094               	bsf	3988,0,c	;volatile
  4007                           
  4008                           ;picuno.c: 817: LATCbits.LATC0 = 0;
  4009  000866  908B               	bcf	3979,0,c	;volatile
  4010  000868  0012               	return	
  4011  00086A                     l583:
  4012                           
  4013                           ;picuno.c: 821: if(mode==0x00)
  4014  00086A  6644               	tstfsz	pinMode@mode,c
  4015  00086C  D003               	goto	l4237
  4016                           
  4017                           ;picuno.c: 822: {
  4018                           ;picuno.c: 823: TRISCbits.TRISC1 = 0;
  4019  00086E  9294               	bcf	3988,1,c	;volatile
  4020                           
  4021                           ;picuno.c: 824: LATCbits.LATC1 = 0;
  4022  000870  928B               	bcf	3979,1,c	;volatile
  4023                           
  4024                           ;picuno.c: 825: }
  4025  000872  0012               	return	
  4026  000874                     l4237:
  4027                           
  4028                           ;picuno.c: 826: else if(mode==0x02)
  4029  000874  5044               	movf	pinMode@mode,w,c
  4030  000876  0A02               	xorlw	2
  4031  000878  A4D8               	btfss	status,2,c
  4032  00087A  D003               	goto	l586
  4033                           
  4034                           ;picuno.c: 827: {
  4035                           ;picuno.c: 828: TRISCbits.TRISC1 = 1;
  4036  00087C  8294               	bsf	3988,1,c	;volatile
  4037                           
  4038                           ;picuno.c: 829: LATCbits.LATC1 = 0;
  4039  00087E  928B               	bcf	3979,1,c	;volatile
  4040                           
  4041                           ;picuno.c: 830: }
  4042  000880  0012               	return	
  4043  000882                     l586:
  4044                           
  4045                           ;picuno.c: 831: else
  4046                           ;picuno.c: 832: {
  4047                           ;picuno.c: 833: TRISCbits.TRISC1 = 1;
  4048  000882  8294               	bsf	3988,1,c	;volatile
  4049                           
  4050                           ;picuno.c: 834: LATCbits.LATC1 = 0;
  4051  000884  928B               	bcf	3979,1,c	;volatile
  4052  000886  0012               	return	
  4053  000888                     l588:
  4054                           
  4055                           ;picuno.c: 838: if(mode==0x00)
  4056  000888  6644               	tstfsz	pinMode@mode,c
  4057  00088A  D003               	goto	l4243
  4058                           
  4059                           ;picuno.c: 839: {
  4060                           ;picuno.c: 840: TRISCbits.TRISC2 = 0;
  4061  00088C  9494               	bcf	3988,2,c	;volatile
  4062                           
  4063                           ;picuno.c: 841: LATCbits.LATC2 = 0;
  4064  00088E  948B               	bcf	3979,2,c	;volatile
  4065                           
  4066                           ;picuno.c: 842: }
  4067  000890  0012               	return	
  4068  000892                     l4243:
  4069                           
  4070                           ;picuno.c: 843: else if(mode==0x02)
  4071  000892  5044               	movf	pinMode@mode,w,c
  4072  000894  0A02               	xorlw	2
  4073  000896  A4D8               	btfss	status,2,c
  4074  000898  D003               	goto	l591
  4075                           
  4076                           ;picuno.c: 844: {
  4077                           ;picuno.c: 845: TRISCbits.TRISC2 = 1;
  4078  00089A  8494               	bsf	3988,2,c	;volatile
  4079                           
  4080                           ;picuno.c: 846: LATCbits.LATC2 = 0;
  4081  00089C  948B               	bcf	3979,2,c	;volatile
  4082                           
  4083                           ;picuno.c: 847: }
  4084  00089E  0012               	return	
  4085  0008A0                     l591:
  4086                           
  4087                           ;picuno.c: 848: else
  4088                           ;picuno.c: 849: {
  4089                           ;picuno.c: 850: TRISCbits.TRISC2 = 1;
  4090  0008A0  8494               	bsf	3988,2,c	;volatile
  4091                           
  4092                           ;picuno.c: 851: LATCbits.LATC2 = 0;
  4093  0008A2  948B               	bcf	3979,2,c	;volatile
  4094  0008A4  0012               	return	
  4095  0008A6                     l593:
  4096                           
  4097                           ;picuno.c: 858: if(mode==0x00)
  4098  0008A6  6644               	tstfsz	pinMode@mode,c
  4099  0008A8  D003               	goto	l4249
  4100                           
  4101                           ;picuno.c: 859: {
  4102                           ;picuno.c: 860: TRISCbits.TRISC3 = 0;
  4103  0008AA  9694               	bcf	3988,3,c	;volatile
  4104                           
  4105                           ;picuno.c: 861: LATCbits.LATC3 = 0;
  4106  0008AC  968B               	bcf	3979,3,c	;volatile
  4107                           
  4108                           ;picuno.c: 862: }
  4109  0008AE  0012               	return	
  4110  0008B0                     l4249:
  4111                           
  4112                           ;picuno.c: 863: else if(mode==0x02)
  4113  0008B0  5044               	movf	pinMode@mode,w,c
  4114  0008B2  0A02               	xorlw	2
  4115  0008B4  A4D8               	btfss	status,2,c
  4116  0008B6  D003               	goto	l596
  4117                           
  4118                           ;picuno.c: 864: {
  4119                           ;picuno.c: 865: TRISCbits.TRISC3 = 1;
  4120  0008B8  8694               	bsf	3988,3,c	;volatile
  4121                           
  4122                           ;picuno.c: 866: LATCbits.LATC3 = 0;
  4123  0008BA  968B               	bcf	3979,3,c	;volatile
  4124                           
  4125                           ;picuno.c: 867: }
  4126  0008BC  0012               	return	
  4127  0008BE                     l596:
  4128                           
  4129                           ;picuno.c: 868: else
  4130                           ;picuno.c: 869: {
  4131                           ;picuno.c: 870: TRISCbits.TRISC3 = 1;
  4132  0008BE  8694               	bsf	3988,3,c	;volatile
  4133                           
  4134                           ;picuno.c: 871: LATCbits.LATC3 = 0;
  4135  0008C0  968B               	bcf	3979,3,c	;volatile
  4136  0008C2  0012               	return	
  4137  0008C4                     l598:
  4138                           
  4139                           ;picuno.c: 875: if(mode==0x00)
  4140  0008C4  6644               	tstfsz	pinMode@mode,c
  4141  0008C6  D003               	goto	l4255
  4142                           
  4143                           ;picuno.c: 876: {
  4144                           ;picuno.c: 877: TRISCbits.TRISC4 = 0;
  4145  0008C8  9894               	bcf	3988,4,c	;volatile
  4146                           
  4147                           ;picuno.c: 878: LATCbits.LATC4 = 0;
  4148  0008CA  988B               	bcf	3979,4,c	;volatile
  4149                           
  4150                           ;picuno.c: 879: }
  4151  0008CC  0012               	return	
  4152  0008CE                     l4255:
  4153                           
  4154                           ;picuno.c: 880: else if(mode==0x02)
  4155  0008CE  5044               	movf	pinMode@mode,w,c
  4156  0008D0  0A02               	xorlw	2
  4157  0008D2  A4D8               	btfss	status,2,c
  4158  0008D4  D003               	goto	l601
  4159                           
  4160                           ;picuno.c: 881: {
  4161                           ;picuno.c: 882: TRISCbits.TRISC4 = 1;
  4162  0008D6  8894               	bsf	3988,4,c	;volatile
  4163                           
  4164                           ;picuno.c: 883: LATCbits.LATC4 = 0;
  4165  0008D8  988B               	bcf	3979,4,c	;volatile
  4166                           
  4167                           ;picuno.c: 884: }
  4168  0008DA  0012               	return	
  4169  0008DC                     l601:
  4170                           
  4171                           ;picuno.c: 885: else
  4172                           ;picuno.c: 886: {
  4173                           ;picuno.c: 887: TRISCbits.TRISC4 = 1;
  4174  0008DC  8894               	bsf	3988,4,c	;volatile
  4175                           
  4176                           ;picuno.c: 888: LATCbits.LATC4 = 0;
  4177  0008DE  988B               	bcf	3979,4,c	;volatile
  4178  0008E0  0012               	return	
  4179  0008E2                     l603:
  4180                           
  4181                           ;picuno.c: 892: if(mode==0x00)
  4182  0008E2  6644               	tstfsz	pinMode@mode,c
  4183  0008E4  D003               	goto	l4261
  4184                           
  4185                           ;picuno.c: 893: {
  4186                           ;picuno.c: 894: TRISCbits.TRISC5 = 0;
  4187  0008E6  9A94               	bcf	3988,5,c	;volatile
  4188                           
  4189                           ;picuno.c: 895: LATCbits.LATC5 = 0;
  4190  0008E8  9A8B               	bcf	3979,5,c	;volatile
  4191                           
  4192                           ;picuno.c: 896: }
  4193  0008EA  0012               	return	
  4194  0008EC                     l4261:
  4195                           
  4196                           ;picuno.c: 897: else if(mode==0x02)
  4197  0008EC  5044               	movf	pinMode@mode,w,c
  4198  0008EE  0A02               	xorlw	2
  4199  0008F0  A4D8               	btfss	status,2,c
  4200  0008F2  D003               	goto	l606
  4201                           
  4202                           ;picuno.c: 898: {
  4203                           ;picuno.c: 899: TRISCbits.TRISC5 = 1;
  4204  0008F4  8A94               	bsf	3988,5,c	;volatile
  4205                           
  4206                           ;picuno.c: 900: LATCbits.LATC5 = 0;
  4207  0008F6  9A8B               	bcf	3979,5,c	;volatile
  4208                           
  4209                           ;picuno.c: 901: }
  4210  0008F8  0012               	return	
  4211  0008FA                     l606:
  4212                           
  4213                           ;picuno.c: 902: else
  4214                           ;picuno.c: 903: {
  4215                           ;picuno.c: 904: TRISCbits.TRISC5 = 1;
  4216  0008FA  8A94               	bsf	3988,5,c	;volatile
  4217                           
  4218                           ;picuno.c: 905: LATCbits.LATC5 = 0;
  4219  0008FC  9A8B               	bcf	3979,5,c	;volatile
  4220  0008FE  0012               	return	
  4221  000900                     l608:
  4222                           
  4223                           ;picuno.c: 911: if(mode==0x00)
  4224  000900  6644               	tstfsz	pinMode@mode,c
  4225  000902  D003               	goto	l4267
  4226                           
  4227                           ;picuno.c: 912: {
  4228                           ;picuno.c: 913: TRISCbits.TRISC6 = 0;
  4229  000904  9C94               	bcf	3988,6,c	;volatile
  4230                           
  4231                           ;picuno.c: 914: LATCbits.LATC6 = 0;
  4232  000906  9C8B               	bcf	3979,6,c	;volatile
  4233                           
  4234                           ;picuno.c: 915: }
  4235  000908  0012               	return	
  4236  00090A                     l4267:
  4237                           
  4238                           ;picuno.c: 916: else if(mode==0x02)
  4239  00090A  5044               	movf	pinMode@mode,w,c
  4240  00090C  0A02               	xorlw	2
  4241  00090E  A4D8               	btfss	status,2,c
  4242  000910  D003               	goto	l611
  4243                           
  4244                           ;picuno.c: 917: {
  4245                           ;picuno.c: 918: TRISCbits.TRISC6 = 1;
  4246  000912  8C94               	bsf	3988,6,c	;volatile
  4247                           
  4248                           ;picuno.c: 919: LATCbits.LATC6 = 0;
  4249  000914  9C8B               	bcf	3979,6,c	;volatile
  4250                           
  4251                           ;picuno.c: 920: }
  4252  000916  0012               	return	
  4253  000918                     l611:
  4254                           
  4255                           ;picuno.c: 921: else
  4256                           ;picuno.c: 922: {
  4257                           ;picuno.c: 923: TRISCbits.TRISC6 = 1;
  4258  000918  8C94               	bsf	3988,6,c	;volatile
  4259                           
  4260                           ;picuno.c: 924: LATCbits.LATC6 = 0;
  4261  00091A  9C8B               	bcf	3979,6,c	;volatile
  4262  00091C  0012               	return	
  4263  00091E                     l613:
  4264                           
  4265                           ;picuno.c: 928: if(mode==0x00)
  4266  00091E  6644               	tstfsz	pinMode@mode,c
  4267  000920  D003               	goto	l4273
  4268                           
  4269                           ;picuno.c: 929: {
  4270                           ;picuno.c: 930: TRISCbits.TRISC7 = 0;
  4271  000922  9E94               	bcf	3988,7,c	;volatile
  4272                           
  4273                           ;picuno.c: 931: LATCbits.LATC7 = 0;
  4274  000924  9E8B               	bcf	3979,7,c	;volatile
  4275                           
  4276                           ;picuno.c: 932: }
  4277  000926  0012               	return	
  4278  000928                     l4273:
  4279                           
  4280                           ;picuno.c: 933: else if(mode==0x02)
  4281  000928  5044               	movf	pinMode@mode,w,c
  4282  00092A  0A02               	xorlw	2
  4283  00092C  A4D8               	btfss	status,2,c
  4284  00092E  D003               	goto	l616
  4285                           
  4286                           ;picuno.c: 934: {
  4287                           ;picuno.c: 935: TRISCbits.TRISC7 = 1;
  4288  000930  8E94               	bsf	3988,7,c	;volatile
  4289                           
  4290                           ;picuno.c: 936: LATCbits.LATC7 = 0;
  4291  000932  9E8B               	bcf	3979,7,c	;volatile
  4292                           
  4293                           ;picuno.c: 937: }
  4294  000934  0012               	return	
  4295  000936                     l616:
  4296                           
  4297                           ;picuno.c: 938: else
  4298                           ;picuno.c: 939: {
  4299                           ;picuno.c: 940: TRISCbits.TRISC7 = 1;
  4300  000936  8E94               	bsf	3988,7,c	;volatile
  4301                           
  4302                           ;picuno.c: 941: LATCbits.LATC7 = 0;
  4303  000938  9E8B               	bcf	3979,7,c	;volatile
  4304  00093A  0012               	return	
  4305  00093C                     l618:
  4306                           
  4307                           ;picuno.c: 945: if(mode==0x00)
  4308  00093C  6644               	tstfsz	pinMode@mode,c
  4309  00093E  D003               	goto	l4279
  4310                           
  4311                           ;picuno.c: 946: {
  4312                           ;picuno.c: 947: TRISDbits.TRISD0 = 0;
  4313  000940  9095               	bcf	3989,0,c	;volatile
  4314                           
  4315                           ;picuno.c: 948: LATDbits.LATD0 = 0;
  4316  000942  908C               	bcf	3980,0,c	;volatile
  4317                           
  4318                           ;picuno.c: 949: }
  4319  000944  0012               	return	
  4320  000946                     l4279:
  4321                           
  4322                           ;picuno.c: 950: else if(mode==0x02)
  4323  000946  5044               	movf	pinMode@mode,w,c
  4324  000948  0A02               	xorlw	2
  4325  00094A  A4D8               	btfss	status,2,c
  4326  00094C  D003               	goto	l621
  4327                           
  4328                           ;picuno.c: 951: {
  4329                           ;picuno.c: 952: TRISDbits.TRISD0 = 1;
  4330  00094E  8095               	bsf	3989,0,c	;volatile
  4331                           
  4332                           ;picuno.c: 953: LATDbits.LATD0 = 0;
  4333  000950  908C               	bcf	3980,0,c	;volatile
  4334                           
  4335                           ;picuno.c: 954: }
  4336  000952  0012               	return	
  4337  000954                     l621:
  4338                           
  4339                           ;picuno.c: 955: else
  4340                           ;picuno.c: 956: {
  4341                           ;picuno.c: 957: TRISDbits.TRISD0 = 1;
  4342  000954  8095               	bsf	3989,0,c	;volatile
  4343                           
  4344                           ;picuno.c: 958: LATDbits.LATD0 = 0;
  4345  000956  908C               	bcf	3980,0,c	;volatile
  4346  000958  0012               	return	
  4347  00095A                     l623:
  4348                           
  4349                           ;picuno.c: 962: if(mode==0x00)
  4350  00095A  6644               	tstfsz	pinMode@mode,c
  4351  00095C  D003               	goto	l4285
  4352                           
  4353                           ;picuno.c: 963: {
  4354                           ;picuno.c: 964: TRISDbits.TRISD1 = 0;
  4355  00095E  9295               	bcf	3989,1,c	;volatile
  4356                           
  4357                           ;picuno.c: 965: LATDbits.LATD1 = 0;
  4358  000960  928C               	bcf	3980,1,c	;volatile
  4359                           
  4360                           ;picuno.c: 966: }
  4361  000962  0012               	return	
  4362  000964                     l4285:
  4363                           
  4364                           ;picuno.c: 967: else if(mode==0x02)
  4365  000964  5044               	movf	pinMode@mode,w,c
  4366  000966  0A02               	xorlw	2
  4367  000968  A4D8               	btfss	status,2,c
  4368  00096A  D003               	goto	l626
  4369                           
  4370                           ;picuno.c: 968: {
  4371                           ;picuno.c: 969: TRISDbits.TRISD1 = 1;
  4372  00096C  8295               	bsf	3989,1,c	;volatile
  4373                           
  4374                           ;picuno.c: 970: LATDbits.LATD1 = 0;
  4375  00096E  928C               	bcf	3980,1,c	;volatile
  4376                           
  4377                           ;picuno.c: 971: }
  4378  000970  0012               	return	
  4379  000972                     l626:
  4380                           
  4381                           ;picuno.c: 972: else
  4382                           ;picuno.c: 973: {
  4383                           ;picuno.c: 974: TRISDbits.TRISD1 = 1;
  4384  000972  8295               	bsf	3989,1,c	;volatile
  4385                           
  4386                           ;picuno.c: 975: LATDbits.LATD1 = 0;
  4387  000974  928C               	bcf	3980,1,c	;volatile
  4388  000976  0012               	return	
  4389  000978                     l628:
  4390                           
  4391                           ;picuno.c: 979: if(mode==0x00)
  4392  000978  6644               	tstfsz	pinMode@mode,c
  4393  00097A  D003               	goto	l4291
  4394                           
  4395                           ;picuno.c: 980: {
  4396                           ;picuno.c: 981: TRISDbits.TRISD2 = 0;
  4397  00097C  9495               	bcf	3989,2,c	;volatile
  4398                           
  4399                           ;picuno.c: 982: LATDbits.LATD2 = 0;
  4400  00097E  948C               	bcf	3980,2,c	;volatile
  4401                           
  4402                           ;picuno.c: 983: }
  4403  000980  0012               	return	
  4404  000982                     l4291:
  4405                           
  4406                           ;picuno.c: 984: else if(mode==0x02)
  4407  000982  5044               	movf	pinMode@mode,w,c
  4408  000984  0A02               	xorlw	2
  4409  000986  A4D8               	btfss	status,2,c
  4410  000988  D003               	goto	l631
  4411                           
  4412                           ;picuno.c: 985: {
  4413                           ;picuno.c: 986: TRISDbits.TRISD2 = 1;
  4414  00098A  8495               	bsf	3989,2,c	;volatile
  4415                           
  4416                           ;picuno.c: 987: LATDbits.LATD2 = 0;
  4417  00098C  948C               	bcf	3980,2,c	;volatile
  4418                           
  4419                           ;picuno.c: 988: }
  4420  00098E  0012               	return	
  4421  000990                     l631:
  4422                           
  4423                           ;picuno.c: 989: else
  4424                           ;picuno.c: 990: {
  4425                           ;picuno.c: 991: TRISDbits.TRISD2 = 1;
  4426  000990  8495               	bsf	3989,2,c	;volatile
  4427                           
  4428                           ;picuno.c: 992: LATDbits.LATD2 = 0;
  4429  000992  948C               	bcf	3980,2,c	;volatile
  4430  000994  0012               	return	
  4431  000996                     l633:
  4432                           
  4433                           ;picuno.c: 996: if(mode==0x00)
  4434  000996  6644               	tstfsz	pinMode@mode,c
  4435  000998  D003               	goto	l4297
  4436                           
  4437                           ;picuno.c: 997: {
  4438                           ;picuno.c: 998: TRISDbits.TRISD3 = 0;
  4439  00099A  9695               	bcf	3989,3,c	;volatile
  4440                           
  4441                           ;picuno.c: 999: LATDbits.LATD3 = 0;
  4442  00099C  968C               	bcf	3980,3,c	;volatile
  4443                           
  4444                           ;picuno.c: 1000: }
  4445  00099E  0012               	return	
  4446  0009A0                     l4297:
  4447                           
  4448                           ;picuno.c: 1001: else if(mode==0x02)
  4449  0009A0  5044               	movf	pinMode@mode,w,c
  4450  0009A2  0A02               	xorlw	2
  4451  0009A4  A4D8               	btfss	status,2,c
  4452  0009A6  D003               	goto	l636
  4453                           
  4454                           ;picuno.c: 1002: {
  4455                           ;picuno.c: 1003: TRISDbits.TRISD3 = 1;
  4456  0009A8  8695               	bsf	3989,3,c	;volatile
  4457                           
  4458                           ;picuno.c: 1004: LATDbits.LATD3 = 0;
  4459  0009AA  968C               	bcf	3980,3,c	;volatile
  4460                           
  4461                           ;picuno.c: 1005: }
  4462  0009AC  0012               	return	
  4463  0009AE                     l636:
  4464                           
  4465                           ;picuno.c: 1006: else
  4466                           ;picuno.c: 1007: {
  4467                           ;picuno.c: 1008: TRISDbits.TRISD3 = 1;
  4468  0009AE  8695               	bsf	3989,3,c	;volatile
  4469                           
  4470                           ;picuno.c: 1009: LATDbits.LATD3 = 0;
  4471  0009B0  968C               	bcf	3980,3,c	;volatile
  4472  0009B2  0012               	return	
  4473  0009B4                     l638:
  4474                           
  4475                           ;picuno.c: 1013: if(mode==0x00)
  4476  0009B4  6644               	tstfsz	pinMode@mode,c
  4477  0009B6  D003               	goto	l4303
  4478                           
  4479                           ;picuno.c: 1014: {
  4480                           ;picuno.c: 1015: TRISDbits.TRISD4 = 0;
  4481  0009B8  9895               	bcf	3989,4,c	;volatile
  4482                           
  4483                           ;picuno.c: 1016: LATDbits.LATD4 = 0;
  4484  0009BA  988C               	bcf	3980,4,c	;volatile
  4485                           
  4486                           ;picuno.c: 1017: }
  4487  0009BC  0012               	return	
  4488  0009BE                     l4303:
  4489                           
  4490                           ;picuno.c: 1018: else if(mode==0x02)
  4491  0009BE  5044               	movf	pinMode@mode,w,c
  4492  0009C0  0A02               	xorlw	2
  4493  0009C2  A4D8               	btfss	status,2,c
  4494  0009C4  D003               	goto	l641
  4495                           
  4496                           ;picuno.c: 1019: {
  4497                           ;picuno.c: 1020: TRISDbits.TRISD4 = 1;
  4498  0009C6  8895               	bsf	3989,4,c	;volatile
  4499                           
  4500                           ;picuno.c: 1021: LATDbits.LATD4 = 0;
  4501  0009C8  988C               	bcf	3980,4,c	;volatile
  4502                           
  4503                           ;picuno.c: 1022: }
  4504  0009CA  0012               	return	
  4505  0009CC                     l641:
  4506                           
  4507                           ;picuno.c: 1023: else
  4508                           ;picuno.c: 1024: {
  4509                           ;picuno.c: 1025: TRISDbits.TRISD4 = 1;
  4510  0009CC  8895               	bsf	3989,4,c	;volatile
  4511                           
  4512                           ;picuno.c: 1026: LATDbits.LATD4 = 0;
  4513  0009CE  988C               	bcf	3980,4,c	;volatile
  4514  0009D0  0012               	return	
  4515  0009D2                     l643:
  4516                           
  4517                           ;picuno.c: 1030: if(mode==0x00)
  4518  0009D2  6644               	tstfsz	pinMode@mode,c
  4519  0009D4  D003               	goto	l4309
  4520                           
  4521                           ;picuno.c: 1031: {
  4522                           ;picuno.c: 1032: TRISDbits.TRISD5 = 0;
  4523  0009D6  9A95               	bcf	3989,5,c	;volatile
  4524                           
  4525                           ;picuno.c: 1033: LATDbits.LATD5 = 0;
  4526  0009D8  9A8C               	bcf	3980,5,c	;volatile
  4527                           
  4528                           ;picuno.c: 1034: }
  4529  0009DA  0012               	return	
  4530  0009DC                     l4309:
  4531                           
  4532                           ;picuno.c: 1035: else if(mode==0x02)
  4533  0009DC  5044               	movf	pinMode@mode,w,c
  4534  0009DE  0A02               	xorlw	2
  4535  0009E0  A4D8               	btfss	status,2,c
  4536  0009E2  D003               	goto	l646
  4537                           
  4538                           ;picuno.c: 1036: {
  4539                           ;picuno.c: 1037: TRISDbits.TRISD5 = 1;
  4540  0009E4  8A95               	bsf	3989,5,c	;volatile
  4541                           
  4542                           ;picuno.c: 1038: LATDbits.LATD5 = 0;
  4543  0009E6  9A8C               	bcf	3980,5,c	;volatile
  4544                           
  4545                           ;picuno.c: 1039: }
  4546  0009E8  0012               	return	
  4547  0009EA                     l646:
  4548                           
  4549                           ;picuno.c: 1040: else
  4550                           ;picuno.c: 1041: {
  4551                           ;picuno.c: 1042: TRISDbits.TRISD5 = 1;
  4552  0009EA  8A95               	bsf	3989,5,c	;volatile
  4553                           
  4554                           ;picuno.c: 1043: LATDbits.LATD5 = 0;
  4555  0009EC  9A8C               	bcf	3980,5,c	;volatile
  4556  0009EE  0012               	return	
  4557  0009F0                     l648:
  4558                           
  4559                           ;picuno.c: 1047: if(mode==0x00)
  4560  0009F0  6644               	tstfsz	pinMode@mode,c
  4561  0009F2  D003               	goto	l4315
  4562                           
  4563                           ;picuno.c: 1048: {
  4564                           ;picuno.c: 1049: TRISDbits.TRISD6 = 0;
  4565  0009F4  9C95               	bcf	3989,6,c	;volatile
  4566                           
  4567                           ;picuno.c: 1050: LATDbits.LATD6 = 0;
  4568  0009F6  9C8C               	bcf	3980,6,c	;volatile
  4569                           
  4570                           ;picuno.c: 1051: }
  4571  0009F8  0012               	return	
  4572  0009FA                     l4315:
  4573                           
  4574                           ;picuno.c: 1052: else if(mode==0x02)
  4575  0009FA  5044               	movf	pinMode@mode,w,c
  4576  0009FC  0A02               	xorlw	2
  4577  0009FE  A4D8               	btfss	status,2,c
  4578  000A00  D003               	goto	l651
  4579                           
  4580                           ;picuno.c: 1053: {
  4581                           ;picuno.c: 1054: TRISDbits.TRISD6 = 1;
  4582  000A02  8C95               	bsf	3989,6,c	;volatile
  4583                           
  4584                           ;picuno.c: 1055: LATDbits.LATD6 = 0;
  4585  000A04  9C8C               	bcf	3980,6,c	;volatile
  4586                           
  4587                           ;picuno.c: 1056: }
  4588  000A06  0012               	return	
  4589  000A08                     l651:
  4590                           
  4591                           ;picuno.c: 1057: else
  4592                           ;picuno.c: 1058: {
  4593                           ;picuno.c: 1059: TRISDbits.TRISD6 = 1;
  4594  000A08  8C95               	bsf	3989,6,c	;volatile
  4595                           
  4596                           ;picuno.c: 1060: LATDbits.LATD6 = 0;
  4597  000A0A  9C8C               	bcf	3980,6,c	;volatile
  4598  000A0C  0012               	return	
  4599  000A0E                     l653:
  4600                           
  4601                           ;picuno.c: 1064: if(mode==0x00)
  4602  000A0E  6644               	tstfsz	pinMode@mode,c
  4603  000A10  D003               	goto	l4321
  4604                           
  4605                           ;picuno.c: 1065: {
  4606                           ;picuno.c: 1066: TRISDbits.TRISD7 = 0;
  4607  000A12  9E95               	bcf	3989,7,c	;volatile
  4608                           
  4609                           ;picuno.c: 1067: LATDbits.LATD7 = 0;
  4610  000A14  9E8C               	bcf	3980,7,c	;volatile
  4611                           
  4612                           ;picuno.c: 1068: }
  4613  000A16  0012               	return	
  4614  000A18                     l4321:
  4615                           
  4616                           ;picuno.c: 1069: else if(mode==0x02)
  4617  000A18  5044               	movf	pinMode@mode,w,c
  4618  000A1A  0A02               	xorlw	2
  4619  000A1C  A4D8               	btfss	status,2,c
  4620  000A1E  D003               	goto	l656
  4621                           
  4622                           ;picuno.c: 1070: {
  4623                           ;picuno.c: 1071: TRISDbits.TRISD7 = 1;
  4624  000A20  8E95               	bsf	3989,7,c	;volatile
  4625                           
  4626                           ;picuno.c: 1072: LATDbits.LATD7 = 0;
  4627  000A22  9E8C               	bcf	3980,7,c	;volatile
  4628                           
  4629                           ;picuno.c: 1073: }
  4630  000A24  0012               	return	
  4631  000A26                     l656:
  4632                           
  4633                           ;picuno.c: 1074: else
  4634                           ;picuno.c: 1075: {
  4635                           ;picuno.c: 1076: TRISDbits.TRISD7 = 1;
  4636  000A26  8E95               	bsf	3989,7,c	;volatile
  4637                           
  4638                           ;picuno.c: 1077: LATDbits.LATD7 = 0;
  4639  000A28  9E8C               	bcf	3980,7,c	;volatile
  4640  000A2A  0012               	return	
  4641  000A2C                     l658:
  4642                           
  4643                           ;picuno.c: 1081: if(mode==0x00)
  4644  000A2C  6644               	tstfsz	pinMode@mode,c
  4645  000A2E  D003               	goto	l4327
  4646                           
  4647                           ;picuno.c: 1082: {
  4648                           ;picuno.c: 1083: TRISEbits.TRISE0 = 0;
  4649  000A30  9096               	bcf	3990,0,c	;volatile
  4650                           
  4651                           ;picuno.c: 1084: LATEbits.LATE0 = 0;
  4652  000A32  908D               	bcf	3981,0,c	;volatile
  4653                           
  4654                           ;picuno.c: 1085: }
  4655  000A34  0012               	return	
  4656  000A36                     l4327:
  4657                           
  4658                           ;picuno.c: 1086: else if(mode==0x02)
  4659  000A36  5044               	movf	pinMode@mode,w,c
  4660  000A38  0A02               	xorlw	2
  4661  000A3A  A4D8               	btfss	status,2,c
  4662  000A3C  D003               	goto	l661
  4663                           
  4664                           ;picuno.c: 1087: {
  4665                           ;picuno.c: 1088: TRISEbits.TRISE0 = 1;
  4666  000A3E  8096               	bsf	3990,0,c	;volatile
  4667                           
  4668                           ;picuno.c: 1089: LATEbits.LATE0 = 0;
  4669  000A40  908D               	bcf	3981,0,c	;volatile
  4670                           
  4671                           ;picuno.c: 1090: }
  4672  000A42  0012               	return	
  4673  000A44                     l661:
  4674                           
  4675                           ;picuno.c: 1091: else
  4676                           ;picuno.c: 1092: {
  4677                           ;picuno.c: 1093: TRISEbits.TRISE0 = 1;
  4678  000A44  8096               	bsf	3990,0,c	;volatile
  4679                           
  4680                           ;picuno.c: 1094: LATEbits.LATE0 = 0;
  4681  000A46  908D               	bcf	3981,0,c	;volatile
  4682  000A48  0012               	return	
  4683  000A4A                     l663:
  4684                           
  4685                           ;picuno.c: 1098: if(mode==0x00)
  4686  000A4A  6644               	tstfsz	pinMode@mode,c
  4687  000A4C  D003               	goto	l4333
  4688                           
  4689                           ;picuno.c: 1099: {
  4690                           ;picuno.c: 1100: TRISEbits.TRISE1 = 0;
  4691  000A4E  9296               	bcf	3990,1,c	;volatile
  4692                           
  4693                           ;picuno.c: 1101: LATEbits.LATE1 = 0;
  4694  000A50  928D               	bcf	3981,1,c	;volatile
  4695                           
  4696                           ;picuno.c: 1102: }
  4697  000A52  0012               	return	
  4698  000A54                     l4333:
  4699                           
  4700                           ;picuno.c: 1103: else if(mode==0x02)
  4701  000A54  5044               	movf	pinMode@mode,w,c
  4702  000A56  0A02               	xorlw	2
  4703  000A58  A4D8               	btfss	status,2,c
  4704  000A5A  D003               	goto	l666
  4705                           
  4706                           ;picuno.c: 1104: {
  4707                           ;picuno.c: 1105: TRISEbits.TRISE1 = 1;
  4708  000A5C  8296               	bsf	3990,1,c	;volatile
  4709                           
  4710                           ;picuno.c: 1106: LATEbits.LATE1 = 0;
  4711  000A5E  928D               	bcf	3981,1,c	;volatile
  4712                           
  4713                           ;picuno.c: 1107: }
  4714  000A60  0012               	return	
  4715  000A62                     l666:
  4716                           
  4717                           ;picuno.c: 1108: else
  4718                           ;picuno.c: 1109: {
  4719                           ;picuno.c: 1110: TRISEbits.TRISE1 = 1;
  4720  000A62  8296               	bsf	3990,1,c	;volatile
  4721                           
  4722                           ;picuno.c: 1111: LATEbits.LATE1 = 0;
  4723  000A64  928D               	bcf	3981,1,c	;volatile
  4724  000A66  0012               	return	
  4725  000A68                     l668:
  4726                           
  4727                           ;picuno.c: 1115: if(mode==0x00)
  4728  000A68  6644               	tstfsz	pinMode@mode,c
  4729  000A6A  D003               	goto	l4339
  4730                           
  4731                           ;picuno.c: 1116: {
  4732                           ;picuno.c: 1117: TRISEbits.TRISE2 = 0;
  4733  000A6C  9496               	bcf	3990,2,c	;volatile
  4734                           
  4735                           ;picuno.c: 1118: LATEbits.LATE2 = 0;
  4736  000A6E  948D               	bcf	3981,2,c	;volatile
  4737                           
  4738                           ;picuno.c: 1119: }
  4739  000A70  0012               	return	
  4740  000A72                     l4339:
  4741                           
  4742                           ;picuno.c: 1120: else if(mode==0x02)
  4743  000A72  5044               	movf	pinMode@mode,w,c
  4744  000A74  0A02               	xorlw	2
  4745  000A76  A4D8               	btfss	status,2,c
  4746  000A78  D003               	goto	l671
  4747                           
  4748                           ;picuno.c: 1121: {
  4749                           ;picuno.c: 1122: TRISEbits.TRISE2 = 1;
  4750  000A7A  8496               	bsf	3990,2,c	;volatile
  4751                           
  4752                           ;picuno.c: 1123: LATEbits.LATE2 = 0;
  4753  000A7C  948D               	bcf	3981,2,c	;volatile
  4754                           
  4755                           ;picuno.c: 1124: }
  4756  000A7E  0012               	return	
  4757  000A80                     l671:
  4758                           
  4759                           ;picuno.c: 1125: else
  4760                           ;picuno.c: 1126: {
  4761                           ;picuno.c: 1127: TRISEbits.TRISE2 = 1;
  4762  000A80  8496               	bsf	3990,2,c	;volatile
  4763                           
  4764                           ;picuno.c: 1128: LATEbits.LATE2 = 0;
  4765  000A82  948D               	bcf	3981,2,c	;volatile
  4766  000A84  0012               	return	
  4767  000A86                     l4345:
  4768  000A86  5045               	movf	pinMode@pin,w,c
  4769                           
  4770                           ; Switch size 1, requested type "space"
  4771                           ; Number of cases is 35, Range of values is 0 to 34
  4772                           ; switch strategies available:
  4773                           ; Name         Instructions Cycles
  4774                           ; simple_byte          106    54 (average)
  4775                           ;	Chosen strategy is simple_byte
  4776  000A88  0A00               	xorlw	0	; case 0
  4777  000A8A  B4D8               	btfsc	status,2,c
  4778  000A8C  D5C2               	goto	l487
  4779  000A8E  0A01               	xorlw	1	; case 1
  4780  000A90  B4D8               	btfsc	status,2,c
  4781  000A92  D5D7               	goto	l495
  4782  000A94  0A03               	xorlw	3	; case 2
  4783  000A96  B4D8               	btfsc	status,2,c
  4784  000A98  D5EC               	goto	l502
  4785  000A9A  0A01               	xorlw	1	; case 3
  4786  000A9C  B4D8               	btfsc	status,2,c
  4787  000A9E  D601               	goto	l509
  4788  000AA0  0A07               	xorlw	7	; case 4
  4789  000AA2  B4D8               	btfsc	status,2,c
  4790  000AA4  D616               	goto	l516
  4791  000AA6  0A01               	xorlw	1	; case 5
  4792  000AA8  B4D8               	btfsc	status,2,c
  4793  000AAA  D622               	goto	l521
  4794  000AAC  0A03               	xorlw	3	; case 6
  4795  000AAE  B4D8               	btfsc	status,2,c
  4796  000AB0  D637               	goto	l528
  4797  000AB2  0A01               	xorlw	1	; case 7
  4798  000AB4  B4D8               	btfsc	status,2,c
  4799  000AB6  D643               	goto	l533
  4800  000AB8  0A0F               	xorlw	15	; case 8
  4801  000ABA  B4D8               	btfsc	status,2,c
  4802  000ABC  D64F               	goto	l538
  4803  000ABE  0A01               	xorlw	1	; case 9
  4804  000AC0  B4D8               	btfsc	status,2,c
  4805  000AC2  D65B               	goto	l543
  4806  000AC4  0A03               	xorlw	3	; case 10
  4807  000AC6  B4D8               	btfsc	status,2,c
  4808  000AC8  D667               	goto	l548
  4809  000ACA  0A01               	xorlw	1	; case 11
  4810  000ACC  B4D8               	btfsc	status,2,c
  4811  000ACE  D673               	goto	l553
  4812  000AD0  0A07               	xorlw	7	; case 12
  4813  000AD2  B4D8               	btfsc	status,2,c
  4814  000AD4  D67F               	goto	l558
  4815  000AD6  0A01               	xorlw	1	; case 13
  4816  000AD8  B4D8               	btfsc	status,2,c
  4817  000ADA  D68B               	goto	l563
  4818  000ADC  0A03               	xorlw	3	; case 14
  4819  000ADE  B4D8               	btfsc	status,2,c
  4820  000AE0  D697               	goto	l568
  4821  000AE2  0A01               	xorlw	1	; case 15
  4822  000AE4  B4D8               	btfsc	status,2,c
  4823  000AE6  D6A3               	goto	l573
  4824  000AE8  0A1F               	xorlw	31	; case 16
  4825  000AEA  B4D8               	btfsc	status,2,c
  4826  000AEC  D6AF               	goto	l578
  4827  000AEE  0A01               	xorlw	1	; case 17
  4828  000AF0  B4D8               	btfsc	status,2,c
  4829  000AF2  D6BB               	goto	l583
  4830  000AF4  0A03               	xorlw	3	; case 18
  4831  000AF6  B4D8               	btfsc	status,2,c
  4832  000AF8  D6C7               	goto	l588
  4833  000AFA  0A01               	xorlw	1	; case 19
  4834  000AFC  B4D8               	btfsc	status,2,c
  4835  000AFE  D6D3               	goto	l593
  4836  000B00  0A07               	xorlw	7	; case 20
  4837  000B02  B4D8               	btfsc	status,2,c
  4838  000B04  D6DF               	goto	l598
  4839  000B06  0A01               	xorlw	1	; case 21
  4840  000B08  B4D8               	btfsc	status,2,c
  4841  000B0A  D6EB               	goto	l603
  4842  000B0C  0A03               	xorlw	3	; case 22
  4843  000B0E  B4D8               	btfsc	status,2,c
  4844  000B10  D6F7               	goto	l608
  4845  000B12  0A01               	xorlw	1	; case 23
  4846  000B14  B4D8               	btfsc	status,2,c
  4847  000B16  D703               	goto	l613
  4848  000B18  0A0F               	xorlw	15	; case 24
  4849  000B1A  B4D8               	btfsc	status,2,c
  4850  000B1C  D70F               	goto	l618
  4851  000B1E  0A01               	xorlw	1	; case 25
  4852  000B20  B4D8               	btfsc	status,2,c
  4853  000B22  D71B               	goto	l623
  4854  000B24  0A03               	xorlw	3	; case 26
  4855  000B26  B4D8               	btfsc	status,2,c
  4856  000B28  D727               	goto	l628
  4857  000B2A  0A01               	xorlw	1	; case 27
  4858  000B2C  B4D8               	btfsc	status,2,c
  4859  000B2E  D733               	goto	l633
  4860  000B30  0A07               	xorlw	7	; case 28
  4861  000B32  B4D8               	btfsc	status,2,c
  4862  000B34  D73F               	goto	l638
  4863  000B36  0A01               	xorlw	1	; case 29
  4864  000B38  B4D8               	btfsc	status,2,c
  4865  000B3A  D74B               	goto	l643
  4866  000B3C  0A03               	xorlw	3	; case 30
  4867  000B3E  B4D8               	btfsc	status,2,c
  4868  000B40  D757               	goto	l648
  4869  000B42  0A01               	xorlw	1	; case 31
  4870  000B44  B4D8               	btfsc	status,2,c
  4871  000B46  D763               	goto	l653
  4872  000B48  0A3F               	xorlw	63	; case 32
  4873  000B4A  B4D8               	btfsc	status,2,c
  4874  000B4C  D76F               	goto	l658
  4875  000B4E  0A01               	xorlw	1	; case 33
  4876  000B50  B4D8               	btfsc	status,2,c
  4877  000B52  D77B               	goto	l663
  4878  000B54  0A03               	xorlw	3	; case 34
  4879  000B56  A4D8               	btfss	status,2,c
  4880  000B58  0012               	return	
  4881  000B5A  D786               	goto	l668
  4882  000B5C                     __end_of_pinMode:
  4883                           	opt stack 0
  4884                           tblptru	equ	0xFF8
  4885                           tblptrh	equ	0xFF7
  4886                           tblptrl	equ	0xFF6
  4887                           tablat	equ	0xFF5
  4888                           prodl	equ	0xFF3
  4889                           postinc0	equ	0xFEE
  4890                           wreg	equ	0xFE8
  4891                           postdec1	equ	0xFE5
  4892                           fsr1l	equ	0xFE1
  4893                           status	equ	0xFD8
  4894                           
  4895 ;; *************** function _analogInput *****************
  4896 ;; Defined at:
  4897 ;;		line 466 in file "../../picuno/picuno.c"
  4898 ;; Parameters:    Size  Location     Type
  4899 ;;  ANx             1    wreg     unsigned char 
  4900 ;; Auto vars:     Size  Location     Type
  4901 ;;  ANx             1   19[COMRAM] unsigned char 
  4902 ;;  d               1   20[COMRAM] unsigned char 
  4903 ;; Return value:  Size  Location     Type
  4904 ;;		None               void
  4905 ;; Registers used:
  4906 ;;		wreg, status,2, status,0
  4907 ;; Tracked objects:
  4908 ;;		On entry : 0/0
  4909 ;;		On exit  : 0/0
  4910 ;;		Unchanged: 0/0
  4911 ;; Data sizes:     COMRAM   BANK0   BANK1   BANK2   BANK3   BANK4   BANK5
  4912 ;;      Params:         0       0       0       0       0       0       0
  4913 ;;      Locals:         2       0       0       0       0       0       0
  4914 ;;      Temps:          2       0       0       0       0       0       0
  4915 ;;      Totals:         4       0       0       0       0       0       0
  4916 ;;Total ram usage:        4 bytes
  4917 ;; Hardware stack levels used:    1
  4918 ;; Hardware stack levels required when called:    3
  4919 ;; This function calls:
  4920 ;;		Nothing
  4921 ;; This function is called by:
  4922 ;;		_pinMode
  4923 ;; This function uses a non-reentrant model
  4924 ;;
  4925                           
  4926                           	psect	text19
  4927  001524                     __ptext19:
  4928                           	opt stack 0
  4929  001524                     _analogInput:
  4930                           	opt stack 23
  4931                           
  4932                           ;incstack = 0
  4933                           ;analogInput@ANx stored from wreg
  4934  001524  6E42               	movwf	analogInput@ANx,c
  4935                           
  4936                           ;picuno.c: 468: byte d;
  4937                           ;picuno.c: 477: d = (1 << ANx);
  4938  001526  C042  F040         	movff	analogInput@ANx,??_analogInput
  4939  00152A  0E01               	movlw	1
  4940  00152C  6E41               	movwf	(??_analogInput+1)& (0+255),c
  4941  00152E  2A40               	incf	??_analogInput,f,c
  4942  001530  D002               	goto	u3814
  4943  001532                     u3815:
  4944  001532  90D8               	bcf	status,0,c
  4945  001534  3641               	rlcf	??_analogInput+1,f,c
  4946  001536                     u3814:
  4947  001536  2E40               	decfsz	??_analogInput,f,c
  4948  001538  D7FC               	goto	u3815
  4949  00153A  5041               	movf	??_analogInput+1,w,c
  4950  00153C  6E43               	movwf	analogInput@d,c
  4951                           
  4952                           ;picuno.c: 478: ANSELA |= d;
  4953  00153E  5043               	movf	analogInput@d,w,c
  4954  001540  010F               	movlb	15	; () banked
  4955  001542  1338               	iorwf	56,f,b	;volatile
  4956                           
  4957                           ; BSR set to: 15
  4958  001544  0012               	return	
  4959  001546                     __end_of_analogInput:
  4960                           	opt stack 0
  4961                           tblptru	equ	0xFF8
  4962                           tblptrh	equ	0xFF7
  4963                           tblptrl	equ	0xFF6
  4964                           tablat	equ	0xFF5
  4965                           prodl	equ	0xFF3
  4966                           postinc0	equ	0xFEE
  4967                           wreg	equ	0xFE8
  4968                           postdec1	equ	0xFE5
  4969                           fsr1l	equ	0xFE1
  4970                           status	equ	0xFD8
  4971                           
  4972 ;; *************** function ___lldiv *****************
  4973 ;; Defined at:
  4974 ;;		line 8 in file "C:\Program Files (x86)\Microchip\xc8\v1.33\sources\common\lldiv.c"
  4975 ;; Parameters:    Size  Location     Type
  4976 ;;  dividend        4   17[COMRAM] unsigned long 
  4977 ;;  divisor         4   21[COMRAM] unsigned long 
  4978 ;; Auto vars:     Size  Location     Type
  4979 ;;  quotient        4    0[BANK0 ] unsigned long 
  4980 ;;  counter         1    4[BANK0 ] unsigned char 
  4981 ;; Return value:  Size  Location     Type
  4982 ;;                  4   17[COMRAM] unsigned long 
  4983 ;; Registers used:
  4984 ;;		wreg, status,2, status,0
  4985 ;; Tracked objects:
  4986 ;;		On entry : 0/0
  4987 ;;		On exit  : 0/0
  4988 ;;		Unchanged: 0/0
  4989 ;; Data sizes:     COMRAM   BANK0   BANK1   BANK2   BANK3   BANK4   BANK5
  4990 ;;      Params:         8       0       0       0       0       0       0
  4991 ;;      Locals:         0       5       0       0       0       0       0
  4992 ;;      Temps:          0       0       0       0       0       0       0
  4993 ;;      Totals:         8       5       0       0       0       0       0
  4994 ;;Total ram usage:       13 bytes
  4995 ;; Hardware stack levels used:    1
  4996 ;; Hardware stack levels required when called:    3
  4997 ;; This function calls:
  4998 ;;		Nothing
  4999 ;; This function is called by:
  5000 ;;		_i2c_init
  5001 ;;		_timerSet
  5002 ;;		_uart_brg_set
  5003 ;; This function uses a non-reentrant model
  5004 ;;
  5005                           
  5006                           	psect	text20
  5007  00109E                     __ptext20:
  5008                           	opt stack 0
  5009  00109E                     ___lldiv:
  5010                           	opt stack 24
  5011                           
  5012                           ; BSR set to: 15
  5013                           ;incstack = 0
  5014  00109E  0E00               	movlw	0
  5015  0010A0  0100               	movlb	0	; () banked
  5016  0010A2  6FCF               	movwf	___lldiv@quotient& (0+255),b
  5017  0010A4  0E00               	movlw	0
  5018  0010A6  0100               	movlb	0	; () banked
  5019  0010A8  6FD0               	movwf	(___lldiv@quotient+1)& (0+255),b
  5020  0010AA  0E00               	movlw	0
  5021  0010AC  0100               	movlb	0	; () banked
  5022  0010AE  6FD1               	movwf	(___lldiv@quotient+2)& (0+255),b
  5023  0010B0  0E00               	movlw	0
  5024  0010B2  0100               	movlb	0	; () banked
  5025  0010B4  6FD2               	movwf	(___lldiv@quotient+3)& (0+255),b
  5026                           
  5027                           ; BSR set to: 0
  5028  0010B6  5047               	movf	___lldiv@divisor+3,w,c
  5029  0010B8  1044               	iorwf	___lldiv@divisor,w,c
  5030  0010BA  1045               	iorwf	___lldiv@divisor+1,w,c
  5031  0010BC  1046               	iorwf	___lldiv@divisor+2,w,c
  5032  0010BE  B4D8               	btfsc	status,2,c
  5033  0010C0  D033               	goto	l1875
  5034                           
  5035                           ; BSR set to: 0
  5036  0010C2  0E01               	movlw	1
  5037  0010C4  0100               	movlb	0	; () banked
  5038  0010C6  6FD3               	movwf	___lldiv@counter& (0+255),b
  5039  0010C8  D007               	goto	l5699
  5040  0010CA                     l5697:
  5041                           
  5042                           ; BSR set to: 0
  5043  0010CA  90D8               	bcf	status,0,c
  5044  0010CC  3644               	rlcf	___lldiv@divisor,f,c
  5045  0010CE  3645               	rlcf	___lldiv@divisor+1,f,c
  5046  0010D0  3646               	rlcf	___lldiv@divisor+2,f,c
  5047  0010D2  3647               	rlcf	___lldiv@divisor+3,f,c
  5048  0010D4  0100               	movlb	0	; () banked
  5049  0010D6  2BD3               	incf	___lldiv@counter& (0+255),f,b
  5050  0010D8                     l5699:
  5051                           
  5052                           ; BSR set to: 0
  5053  0010D8  AE47               	btfss	___lldiv@divisor+3,7,c
  5054  0010DA  D7F7               	goto	l5697
  5055  0010DC                     l5701:
  5056                           
  5057                           ; BSR set to: 0
  5058  0010DC  0100               	movlb	0	; () banked
  5059  0010DE  90D8               	bcf	status,0,c
  5060  0010E0  0100               	movlb	0	; () banked
  5061  0010E2  37CF               	rlcf	___lldiv@quotient& (0+255),f,b
  5062  0010E4  0100               	movlb	0	; () banked
  5063  0010E6  37D0               	rlcf	(___lldiv@quotient+1)& (0+255),f,b
  5064  0010E8  0100               	movlb	0	; () banked
  5065  0010EA  37D1               	rlcf	(___lldiv@quotient+2)& (0+255),f,b
  5066  0010EC  0100               	movlb	0	; () banked
  5067  0010EE  37D2               	rlcf	(___lldiv@quotient+3)& (0+255),f,b
  5068                           
  5069                           ; BSR set to: 0
  5070  0010F0  5044               	movf	___lldiv@divisor,w,c
  5071  0010F2  5C40               	subwf	___lldiv@dividend,w,c
  5072  0010F4  5045               	movf	___lldiv@divisor+1,w,c
  5073  0010F6  5841               	subwfb	___lldiv@dividend+1,w,c
  5074  0010F8  5046               	movf	___lldiv@divisor+2,w,c
  5075  0010FA  5842               	subwfb	___lldiv@dividend+2,w,c
  5076  0010FC  5047               	movf	___lldiv@divisor+3,w,c
  5077  0010FE  5843               	subwfb	___lldiv@dividend+3,w,c
  5078  001100  A0D8               	btfss	status,0,c
  5079  001102  D00A               	goto	l5709
  5080                           
  5081                           ; BSR set to: 0
  5082  001104  5044               	movf	___lldiv@divisor,w,c
  5083  001106  5E40               	subwf	___lldiv@dividend,f,c
  5084  001108  5045               	movf	___lldiv@divisor+1,w,c
  5085  00110A  5A41               	subwfb	___lldiv@dividend+1,f,c
  5086  00110C  5046               	movf	___lldiv@divisor+2,w,c
  5087  00110E  5A42               	subwfb	___lldiv@dividend+2,f,c
  5088  001110  5047               	movf	___lldiv@divisor+3,w,c
  5089  001112  5A43               	subwfb	___lldiv@dividend+3,f,c
  5090                           
  5091                           ; BSR set to: 0
  5092  001114  0100               	movlb	0	; () banked
  5093  001116  81CF               	bsf	___lldiv@quotient& (0+255),0,b
  5094  001118                     l5709:
  5095                           
  5096                           ; BSR set to: 0
  5097  001118  90D8               	bcf	status,0,c
  5098  00111A  3247               	rrcf	___lldiv@divisor+3,f,c
  5099  00111C  3246               	rrcf	___lldiv@divisor+2,f,c
  5100  00111E  3245               	rrcf	___lldiv@divisor+1,f,c
  5101  001120  3244               	rrcf	___lldiv@divisor,f,c
  5102                           
  5103                           ; BSR set to: 0
  5104  001122  0100               	movlb	0	; () banked
  5105  001124  2FD3               	decfsz	___lldiv@counter& (0+255),f,b
  5106  001126  D7DA               	goto	l5701
  5107  001128                     l1875:
  5108                           
  5109                           ; BSR set to: 0
  5110  001128  C0CF  F040         	movff	___lldiv@quotient,?___lldiv
  5111  00112C  C0D0  F041         	movff	___lldiv@quotient+1,?___lldiv+1
  5112  001130  C0D1  F042         	movff	___lldiv@quotient+2,?___lldiv+2
  5113  001134  C0D2  F043         	movff	___lldiv@quotient+3,?___lldiv+3
  5114                           
  5115                           ; BSR set to: 0
  5116  001138  0012               	return	
  5117  00113A                     __end_of___lldiv:
  5118                           	opt stack 0
  5119                           tblptru	equ	0xFF8
  5120                           tblptrh	equ	0xFF7
  5121                           tblptrl	equ	0xFF6
  5122                           tablat	equ	0xFF5
  5123                           prodl	equ	0xFF3
  5124                           postinc0	equ	0xFEE
  5125                           wreg	equ	0xFE8
  5126                           postdec1	equ	0xFE5
  5127                           fsr1l	equ	0xFE1
  5128                           status	equ	0xFD8
  5129                           
  5130 ;; *************** function _loop *****************
  5131 ;; Defined at:
  5132 ;;		line 8 in file "example_helloWorld.c"
  5133 ;; Parameters:    Size  Location     Type
  5134 ;;		None
  5135 ;; Auto vars:     Size  Location     Type
  5136 ;;		None
  5137 ;; Return value:  Size  Location     Type
  5138 ;;		None               void
  5139 ;; Registers used:
  5140 ;;		None
  5141 ;; Tracked objects:
  5142 ;;		On entry : 0/0
  5143 ;;		On exit  : 0/0
  5144 ;;		Unchanged: 0/0
  5145 ;; Data sizes:     COMRAM   BANK0   BANK1   BANK2   BANK3   BANK4   BANK5
  5146 ;;      Params:         0       0       0       0       0       0       0
  5147 ;;      Locals:         0       0       0       0       0       0       0
  5148 ;;      Temps:          0       0       0       0       0       0       0
  5149 ;;      Totals:         0       0       0       0       0       0       0
  5150 ;;Total ram usage:        0 bytes
  5151 ;; Hardware stack levels used:    1
  5152 ;; Hardware stack levels required when called:    3
  5153 ;; This function calls:
  5154 ;;		Nothing
  5155 ;; This function is called by:
  5156 ;;		_main
  5157 ;; This function uses a non-reentrant model
  5158 ;;
  5159                           
  5160                           	psect	text21
  5161  0015C0                     __ptext21:
  5162                           	opt stack 0
  5163  0015C0                     _loop:
  5164                           	opt stack 27
  5165                           
  5166                           ; BSR set to: 0
  5167                           ;incstack = 0
  5168  0015C0  0012               	return	
  5169  0015C2                     __end_of_loop:
  5170                           	opt stack 0
  5171                           tblptru	equ	0xFF8
  5172                           tblptrh	equ	0xFF7
  5173                           tblptrl	equ	0xFF6
  5174                           tablat	equ	0xFF5
  5175                           prodl	equ	0xFF3
  5176                           postinc0	equ	0xFEE
  5177                           wreg	equ	0xFE8
  5178                           postdec1	equ	0xFE5
  5179                           fsr1l	equ	0xFE1
  5180                           status	equ	0xFD8
  5181                           
  5182 ;; *************** function _init *****************
  5183 ;; Defined at:
  5184 ;;		line 187 in file "../../picuno/picuno.c"
  5185 ;; Parameters:    Size  Location     Type
  5186 ;;		None
  5187 ;; Auto vars:     Size  Location     Type
  5188 ;;  i               1   17[COMRAM] unsigned char 
  5189 ;; Return value:  Size  Location     Type
  5190 ;;		None               void
  5191 ;; Registers used:
  5192 ;;		wreg, fsr2l, fsr2h, status,2, status,0, prodl, prodh
  5193 ;; Tracked objects:
  5194 ;;		On entry : 0/0
  5195 ;;		On exit  : 0/0
  5196 ;;		Unchanged: 0/0
  5197 ;; Data sizes:     COMRAM   BANK0   BANK1   BANK2   BANK3   BANK4   BANK5
  5198 ;;      Params:         0       0       0       0       0       0       0
  5199 ;;      Locals:         1       0       0       0       0       0       0
  5200 ;;      Temps:          0       0       0       0       0       0       0
  5201 ;;      Totals:         1       0       0       0       0       0       0
  5202 ;;Total ram usage:        1 bytes
  5203 ;; Hardware stack levels used:    1
  5204 ;; Hardware stack levels required when called:    3
  5205 ;; This function calls:
  5206 ;;		Nothing
  5207 ;; This function is called by:
  5208 ;;		_main
  5209 ;; This function uses a non-reentrant model
  5210 ;;
  5211                           
  5212                           	psect	text22
  5213  00113A                     __ptext22:
  5214                           	opt stack 0
  5215  00113A                     _init:
  5216                           	opt stack 27
  5217                           
  5218                           ;picuno.c: 189: byte i;
  5219                           ;picuno.c: 192: OSCCON = 0x70;
  5220                           
  5221                           ;incstack = 0
  5222  00113A  0E70               	movlw	112
  5223  00113C  6ED3               	movwf	4051,c	;volatile
  5224                           
  5225                           ;picuno.c: 194: OSCCON2 = 0x04;
  5226  00113E  0E04               	movlw	4
  5227  001140  6ED2               	movwf	4050,c	;volatile
  5228                           
  5229                           ;picuno.c: 196: OSCTUNE = 0x40;
  5230  001142  0E40               	movlw	64
  5231  001144  6E9B               	movwf	3995,c	;volatile
  5232  001146                     l405:
  5233  001146  AED2               	btfss	4050,7,c	;volatile
  5234  001148  D7FE               	goto	l405
  5235                           
  5236                           ;picuno.c: 200: }
  5237                           ;picuno.c: 212: ANSELA = 0b00000000;
  5238  00114A  0E00               	movlw	0
  5239  00114C  010F               	movlb	15	; () banked
  5240  00114E  6F38               	movwf	56,b	;volatile
  5241                           
  5242                           ;picuno.c: 213: ANSELB = 0b00000000;
  5243  001150  0E00               	movlw	0
  5244  001152  010F               	movlb	15	; () banked
  5245  001154  6F39               	movwf	57,b	;volatile
  5246                           
  5247                           ;picuno.c: 214: ANSELC = 0b00000000;
  5248  001156  0E00               	movlw	0
  5249  001158  010F               	movlb	15	; () banked
  5250  00115A  6F3A               	movwf	58,b	;volatile
  5251                           
  5252                           ;picuno.c: 215: ANSELD = 0b00000000;
  5253  00115C  0E00               	movlw	0
  5254  00115E  010F               	movlb	15	; () banked
  5255  001160  6F3B               	movwf	59,b	;volatile
  5256                           
  5257                           ;picuno.c: 216: ANSELE = 0b00000000;
  5258  001162  0E00               	movlw	0
  5259  001164  010F               	movlb	15	; () banked
  5260  001166  6F3C               	movwf	60,b	;volatile
  5261                           
  5262                           ;picuno.c: 217: VREFCON0 = 0b10110000;
  5263  001168  0EB0               	movlw	176
  5264  00116A  010F               	movlb	15	; () banked
  5265  00116C  6F42               	movwf	66,b	;volatile
  5266                           
  5267                           ;picuno.c: 218: ADCON1 = 0b00110000;
  5268  00116E  0E30               	movlw	48
  5269  001170  6EC1               	movwf	4033,c	;volatile
  5270                           
  5271                           ;picuno.c: 219: ADCON2 = 0b10000011;
  5272  001172  0E83               	movlw	131
  5273  001174  6EC0               	movwf	4032,c	;volatile
  5274                           
  5275                           ;picuno.c: 230: LATA = 0x00;
  5276  001176  0E00               	movlw	0
  5277  001178  6E89               	movwf	3977,c	;volatile
  5278                           
  5279                           ;picuno.c: 231: LATB = 0x00;
  5280  00117A  0E00               	movlw	0
  5281  00117C  6E8A               	movwf	3978,c	;volatile
  5282                           
  5283                           ;picuno.c: 232: LATC = 0x00;
  5284  00117E  0E00               	movlw	0
  5285  001180  6E8B               	movwf	3979,c	;volatile
  5286                           
  5287                           ;picuno.c: 233: LATD = 0x00;
  5288  001182  0E00               	movlw	0
  5289  001184  6E8C               	movwf	3980,c	;volatile
  5290                           
  5291                           ;picuno.c: 234: LATE = 0x00;
  5292  001186  0E00               	movlw	0
  5293  001188  6E8D               	movwf	3981,c	;volatile
  5294                           
  5295                           ;picuno.c: 237: for(i=0;i<10;i++) TimerArray[i]=0;
  5296  00118A  0E00               	movlw	0
  5297  00118C  6E40               	movwf	init@i,c
  5298  00118E  D00F               	goto	L1
  5299  001190                     l4575:
  5300  001190  5040               	movf	init@i,w,c
  5301  001192  0D02               	mullw	2
  5302  001194  0100               	movlb	0	; () banked
  5303  001196  0EA2               	movlw	low _TimerArray
  5304  001198  24F3               	addwf	prodl,w,c
  5305  00119A  6ED9               	movwf	fsr2l,c
  5306  00119C  0100               	movlb	0	; () banked
  5307  00119E  0E00               	movlw	high _TimerArray
  5308  0011A0  20F4               	addwfc	prodh,w,c
  5309  0011A2  6EDA               	movwf	fsr2h,c
  5310  0011A4  0E00               	movlw	0
  5311  0011A6  6EDE               	movwf	postinc2,c
  5312  0011A8  0E00               	movlw	0
  5313  0011AA  6EDD               	movwf	postdec2,c
  5314                           
  5315                           ; BSR set to: 0
  5316  0011AC  2A40               	incf	init@i,f,c
  5317  0011AE                     L1:
  5318                           
  5319                           ; BSR set to: 0
  5320  0011AE  0E09               	movlw	9
  5321  0011B0  6440               	cpfsgt	init@i,c
  5322  0011B2  D7EE               	goto	l4575
  5323                           
  5324                           ;picuno.c: 240: T0CON = 0b00000000;
  5325                           
  5326                           ; BSR set to: 0
  5327  0011B4  0E00               	movlw	0
  5328  0011B6  6ED5               	movwf	4053,c	;volatile
  5329                           
  5330                           ;picuno.c: 241: TMR0IF = 0;
  5331  0011B8  94F2               	bcf	intcon,2,c	;volatile
  5332                           
  5333                           ;picuno.c: 242: TMR0IE = 1;
  5334  0011BA  8AF2               	bsf	intcon,5,c	;volatile
  5335                           
  5336                           ;picuno.c: 243: TMR0IP = 1;
  5337  0011BC  84F1               	bsf	intcon2,2,c	;volatile
  5338                           
  5339                           ;picuno.c: 247: PIR1bits.TMR1IF = 0;
  5340  0011BE  909E               	bcf	3998,0,c	;volatile
  5341                           
  5342                           ;picuno.c: 249: T1GCON = 0x00;
  5343  0011C0  0E00               	movlw	0
  5344  0011C2  6ECC               	movwf	4044,c	;volatile
  5345                           
  5346                           ;picuno.c: 251: T1CON = 0x32;
  5347  0011C4  0E32               	movlw	50
  5348  0011C6  6ECD               	movwf	4045,c	;volatile
  5349                           
  5350                           ;picuno.c: 267: T0CON = 0b10010001;
  5351  0011C8  0E91               	movlw	145
  5352  0011CA  6ED5               	movwf	4053,c	;volatile
  5353                           
  5354                           ;picuno.c: 270: PEIE = 1;
  5355  0011CC  8CF2               	bsf	intcon,6,c	;volatile
  5356                           
  5357                           ;picuno.c: 272: RCONbits.IPEN = 1;
  5358  0011CE  8ED0               	bsf	4048,7,c	;volatile
  5359                           
  5360                           ;picuno.c: 273: INTCONbits.GIEH = 1;
  5361  0011D0  8EF2               	bsf	intcon,7,c	;volatile
  5362  0011D2  0012               	return	
  5363  0011D4                     __end_of_init:
  5364                           	opt stack 0
  5365                           tblptru	equ	0xFF8
  5366                           tblptrh	equ	0xFF7
  5367                           tblptrl	equ	0xFF6
  5368                           tablat	equ	0xFF5
  5369                           prodh	equ	0xFF4
  5370                           prodl	equ	0xFF3
  5371                           intcon	equ	0xFF2
  5372                           intcon2	equ	0xFF1
  5373                           postinc0	equ	0xFEE
  5374                           wreg	equ	0xFE8
  5375                           postdec1	equ	0xFE5
  5376                           fsr1l	equ	0xFE1
  5377                           postinc2	equ	0xFDE
  5378                           postdec2	equ	0xFDD
  5379                           fsr2h	equ	0xFDA
  5380                           fsr2l	equ	0xFD9
  5381                           status	equ	0xFD8
  5382                           
  5383 ;; *************** function _InterruptHandlerHigh *****************
  5384 ;; Defined at:
  5385 ;;		line 52 in file "../../picuno/picuno.c"
  5386 ;; Parameters:    Size  Location     Type
  5387 ;;		None
  5388 ;; Auto vars:     Size  Location     Type
  5389 ;;  dd              2   14[COMRAM] unsigned int 
  5390 ;;  i               1   16[COMRAM] unsigned char 
  5391 ;; Return value:  Size  Location     Type
  5392 ;;		None               void
  5393 ;; Registers used:
  5394 ;;		wreg, fsr2l, fsr2h, status,2, status,0, prodl, prodh, cstack
  5395 ;; Tracked objects:
  5396 ;;		On entry : 0/0
  5397 ;;		On exit  : 0/0
  5398 ;;		Unchanged: 0/0
  5399 ;; Data sizes:     COMRAM   BANK0   BANK1   BANK2   BANK3   BANK4   BANK5
  5400 ;;      Params:         0       0       0       0       0       0       0
  5401 ;;      Locals:         3       0       0       0       0       0       0
  5402 ;;      Temps:         14       0       0       0       0       0       0
  5403 ;;      Totals:        17       0       0       0       0       0       0
  5404 ;;Total ram usage:       17 bytes
  5405 ;; Hardware stack levels used:    1
  5406 ;; Hardware stack levels required when called:    2
  5407 ;; This function calls:
  5408 ;;		_INT0_ISR
  5409 ;;		_INT1_ISR
  5410 ;;		_INT2_ISR
  5411 ;; This function is called by:
  5412 ;;		Interrupt level 2
  5413 ;; This function uses a non-reentrant model
  5414 ;;
  5415                           
  5416                           	psect	intcode
  5417  000008                     __pintcode:
  5418                           	opt stack 0
  5419  000008                     _InterruptHandlerHigh:
  5420                           	opt stack 21
  5421                           
  5422                           ;incstack = 0
  5423  000008  CFFA F02F          	movff	pclath,??_InterruptHandlerHigh
  5424  00000C  CFFB F030          	movff	pclatu,??_InterruptHandlerHigh+1
  5425  000010  CFE9 F031          	movff	fsr0l,??_InterruptHandlerHigh+2
  5426  000014  CFEA F032          	movff	fsr0h,??_InterruptHandlerHigh+3
  5427  000018  CFE1 F033          	movff	fsr1l,??_InterruptHandlerHigh+4
  5428  00001C  CFE2 F034          	movff	fsr1h,??_InterruptHandlerHigh+5
  5429  000020  CFD9 F035          	movff	fsr2l,??_InterruptHandlerHigh+6
  5430  000024  CFDA F036          	movff	fsr2h,??_InterruptHandlerHigh+7
  5431  000028  CFF3 F037          	movff	prodl,??_InterruptHandlerHigh+8
  5432  00002C  CFF4 F038          	movff	prodh,??_InterruptHandlerHigh+9
  5433  000030  CFF6 F039          	movff	tblptrl,??_InterruptHandlerHigh+10
  5434  000034  CFF7 F03A          	movff	tblptrh,??_InterruptHandlerHigh+11
  5435  000038  CFF8 F03B          	movff	tblptru,??_InterruptHandlerHigh+12
  5436  00003C  CFF5 F03C          	movff	tablat,??_InterruptHandlerHigh+13
  5437                           
  5438                           ;picuno.c: 54: byte i;
  5439                           ;picuno.c: 55: unsigned int dd;
  5440                           ;picuno.c: 58: if(INTCONbits.INT0IE == 1 && INTCONbits.INT0IF == 1)
  5441  000040  B8F2               	btfsc	intcon,4,c	;volatile
  5442  000042  A2F2               	btfss	intcon,1,c	;volatile
  5443  000044  D003               	goto	i2l367
  5444                           
  5445                           ;picuno.c: 59: {
  5446                           ;picuno.c: 60: INT0_ISR();
  5447  000046  ECD9  F00A         	call	_INT0_ISR	;wreg free
  5448                           
  5449                           ;picuno.c: 61: }
  5450  00004A  D00B               	goto	i2l4687
  5451  00004C                     i2l367:
  5452                           
  5453                           ;picuno.c: 62: else if(INTCON3bits.INT1IE == 1 && INTCON3bits.INT1IF == 1)
  5454  00004C  B6F0               	btfsc	intcon3,3,c	;volatile
  5455  00004E  A0F0               	btfss	intcon3,0,c	;volatile
  5456  000050  D003               	goto	i2l369
  5457                           
  5458                           ;picuno.c: 63: {
  5459                           ;picuno.c: 64: INT1_ISR();
  5460  000052  ECD5  F00A         	call	_INT1_ISR	;wreg free
  5461                           
  5462                           ;picuno.c: 65: }
  5463  000056  D005               	goto	i2l4687
  5464  000058                     i2l369:
  5465                           
  5466                           ;picuno.c: 66: else if(INTCON3bits.INT2IE == 1 && INTCON3bits.INT2IF == 1)
  5467  000058  B8F0               	btfsc	intcon3,4,c	;volatile
  5468  00005A  A2F0               	btfss	intcon3,1,c	;volatile
  5469  00005C  D002               	goto	i2l4687
  5470                           
  5471                           ;picuno.c: 67: {
  5472                           ;picuno.c: 68: INT2_ISR();
  5473  00005E  ECD1  F00A         	call	_INT2_ISR	;wreg free
  5474  000062                     i2l4687:
  5475                           
  5476                           ;picuno.c: 69: }
  5477                           ;picuno.c: 72: if (INTCONbits.TMR0IF)
  5478  000062  A4F2               	btfss	intcon,2,c	;volatile
  5479  000064  D068               	goto	i2l372
  5480                           
  5481                           ;picuno.c: 73: {
  5482                           ;picuno.c: 75: TMR0H = 0x63;
  5483  000066  0E63               	movlw	99
  5484  000068  6ED7               	movwf	4055,c	;volatile
  5485                           
  5486                           ;picuno.c: 76: TMR0L = 0xBF;
  5487  00006A  0EBF               	movlw	191
  5488  00006C  6ED6               	movwf	4054,c	;volatile
  5489                           
  5490                           ;picuno.c: 80: INTCONbits.TMR0IF = 0;
  5491  00006E  94F2               	bcf	intcon,2,c	;volatile
  5492                           
  5493                           ;picuno.c: 81: Flags.Bit.bit0 = 1;
  5494  000070  8001               	bsf	_Flags,0,c
  5495                           
  5496                           ;picuno.c: 82: sysTick++;
  5497  000072  0E01               	movlw	1
  5498  000074  0100               	movlb	0	; () banked
  5499  000076  27B6               	addwf	_sysTick& (0+255),f,b
  5500  000078  0E00               	movlw	0
  5501  00007A  0100               	movlb	0	; () banked
  5502  00007C  23B7               	addwfc	(_sysTick+1)& (0+255),f,b
  5503  00007E  0100               	movlb	0	; () banked
  5504  000080  23B8               	addwfc	(_sysTick+2)& (0+255),f,b
  5505  000082  0100               	movlb	0	; () banked
  5506  000084  23B9               	addwfc	(_sysTick+3)& (0+255),f,b
  5507                           
  5508                           ; BSR set to: 0
  5509                           ;picuno.c: 84: if(TmrRxd1)
  5510  000086  5004               	movf	_TmrRxd1,w,c
  5511  000088  B4D8               	btfsc	status,2,c
  5512  00008A  D005               	goto	i2l373
  5513                           
  5514                           ; BSR set to: 0
  5515                           ;picuno.c: 85: {
  5516                           ;picuno.c: 86: TmrRxd1--;
  5517  00008C  0604               	decf	_TmrRxd1,f,c
  5518                           
  5519                           ; BSR set to: 0
  5520                           ;picuno.c: 87: if(!TmrRxd1)
  5521  00008E  6604               	tstfsz	_TmrRxd1,c
  5522  000090  D002               	goto	i2l373
  5523                           
  5524                           ; BSR set to: 0
  5525                           ;picuno.c: 88: {
  5526                           ;picuno.c: 89: uart1_rx_ready=1;
  5527  000092  0E01               	movlw	1
  5528  000094  6E22               	movwf	_uart1_rx_ready,c
  5529  000096                     i2l373:
  5530                           
  5531                           ; BSR set to: 0
  5532                           ;picuno.c: 90: }
  5533                           ;picuno.c: 91: }
  5534                           ;picuno.c: 94: if(TmrRxd2)
  5535  000096  5005               	movf	_TmrRxd2,w,c
  5536  000098  B4D8               	btfsc	status,2,c
  5537  00009A  D005               	goto	i2l375
  5538                           
  5539                           ; BSR set to: 0
  5540                           ;picuno.c: 95: {
  5541                           ;picuno.c: 96: TmrRxd2--;
  5542  00009C  0605               	decf	_TmrRxd2,f,c
  5543                           
  5544                           ; BSR set to: 0
  5545                           ;picuno.c: 97: if(!TmrRxd2)
  5546  00009E  6605               	tstfsz	_TmrRxd2,c
  5547  0000A0  D002               	goto	i2l375
  5548                           
  5549                           ; BSR set to: 0
  5550                           ;picuno.c: 98: {
  5551                           ;picuno.c: 99: uart2_rx_ready=1;
  5552  0000A2  0E01               	movlw	1
  5553  0000A4  6E2A               	movwf	_uart2_rx_ready,c
  5554  0000A6                     i2l375:
  5555                           
  5556                           ; BSR set to: 0
  5557                           ;picuno.c: 100: }
  5558                           ;picuno.c: 101: }
  5559                           ;picuno.c: 104: if(OneSec) OneSec--;
  5560  0000A6  504C               	movf	_OneSec,w,c
  5561  0000A8  A4D8               	btfss	status,2,c
  5562                           
  5563                           ; BSR set to: 0
  5564  0000AA  064C               	decf	_OneSec,f,c
  5565                           
  5566                           ; BSR set to: 0
  5567                           ;picuno.c: 105: if(OneSec==50) Flags.Bit.bit2 = ~Flags.Bit.bit2;
  5568                           
  5569                           ; BSR set to: 0
  5570  0000AC  504C               	movf	_OneSec,w,c
  5571  0000AE  0A32               	xorlw	50
  5572  0000B0  B4D8               	btfsc	status,2,c
  5573                           
  5574                           ; BSR set to: 0
  5575  0000B2  7401               	btg	_Flags,2,c
  5576                           
  5577                           ; BSR set to: 0
  5578                           ;picuno.c: 106: if(OneSec==0)
  5579  0000B4  664C               	tstfsz	_OneSec,c
  5580  0000B6  D006               	goto	i2l4723
  5581                           
  5582                           ; BSR set to: 0
  5583                           ;picuno.c: 107: {
  5584                           ;picuno.c: 108: OneSec=100;
  5585  0000B8  0E64               	movlw	100
  5586  0000BA  6E4C               	movwf	_OneSec,c
  5587                           
  5588                           ; BSR set to: 0
  5589                           ;picuno.c: 109: Flags.Bit.bit3 = ~Flags.Bit.bit3;
  5590  0000BC  7601               	btg	_Flags,3,c
  5591                           
  5592                           ;picuno.c: 110: if(TmrSec) TmrSec--;
  5593  0000BE  504D               	movf	_TmrSec,w,c
  5594  0000C0  A4D8               	btfss	status,2,c
  5595                           
  5596                           ; BSR set to: 0
  5597  0000C2  064D               	decf	_TmrSec,f,c
  5598  0000C4                     i2l4723:
  5599                           
  5600                           ; BSR set to: 0
  5601                           ;picuno.c: 111: }
  5602                           ;picuno.c: 113: if(HMSec) HMSec--;
  5603  0000C4  504B               	movf	_HMSec,w,c
  5604  0000C6  A4D8               	btfss	status,2,c
  5605                           
  5606                           ; BSR set to: 0
  5607  0000C8  064B               	decf	_HMSec,f,c
  5608                           
  5609                           ; BSR set to: 0
  5610                           ;picuno.c: 114: if(!HMSec){HMSec=10; Flags.Bit.bit1 = ~Flags.Bit.bit1;}
  5611                           
  5612                           ; BSR set to: 0
  5613  0000CA  664B               	tstfsz	_HMSec,c
  5614  0000CC  D003               	goto	i2l382
  5615                           
  5616                           ; BSR set to: 0
  5617  0000CE  0E0A               	movlw	10
  5618  0000D0  6E4B               	movwf	_HMSec,c
  5619                           
  5620                           ; BSR set to: 0
  5621  0000D2  7201               	btg	_Flags,1,c
  5622  0000D4                     i2l382:
  5623                           
  5624                           ; BSR set to: 0
  5625                           ;picuno.c: 116: if(TimerFlag)
  5626  0000D4  5003               	movf	_TimerFlag,w,c
  5627  0000D6  B4D8               	btfsc	status,2,c
  5628  0000D8  D02E               	goto	i2l372
  5629                           
  5630                           ; BSR set to: 0
  5631                           ;picuno.c: 117: {
  5632                           ;picuno.c: 118: TimerFlag = 0;
  5633  0000DA  0E00               	movlw	0
  5634  0000DC  6E03               	movwf	_TimerFlag,c
  5635                           
  5636                           ;picuno.c: 119: for(i=0;i<10;i++)
  5637  0000DE  0E00               	movlw	0
  5638  0000E0  6E3F               	movwf	InterruptHandlerHigh@i,c
  5639  0000E2  D026               	goto	L3
  5640  0000E4                     i2l4739:
  5641                           
  5642                           ; BSR set to: 0
  5643                           ;picuno.c: 120: {
  5644                           ;picuno.c: 121: dd=TimerArray[i];
  5645  0000E4  503F               	movf	InterruptHandlerHigh@i,w,c
  5646  0000E6  0D02               	mullw	2
  5647  0000E8  0100               	movlb	0	; () banked
  5648  0000EA  0EA2               	movlw	low _TimerArray
  5649  0000EC  24F3               	addwf	prodl,w,c
  5650  0000EE  6ED9               	movwf	fsr2l,c
  5651  0000F0  0100               	movlb	0	; () banked
  5652  0000F2  0E00               	movlw	high _TimerArray
  5653  0000F4  20F4               	addwfc	prodh,w,c
  5654  0000F6  6EDA               	movwf	fsr2h,c
  5655  0000F8  CFDE F03D          	movff	postinc2,InterruptHandlerHigh@dd
  5656  0000FC  CFDD F03E          	movff	postdec2,InterruptHandlerHigh@dd+1
  5657                           
  5658                           ; BSR set to: 0
  5659                           ;picuno.c: 122: if(dd) { dd--; TimerFlag=1; }
  5660  000100  503E               	movf	InterruptHandlerHigh@dd+1,w,c
  5661  000102  103D               	iorwf	InterruptHandlerHigh@dd,w,c
  5662  000104  B4D8               	btfsc	status,2,c
  5663  000106  D005               	goto	i2l4747
  5664                           
  5665                           ; BSR set to: 0
  5666  000108  063D               	decf	InterruptHandlerHigh@dd,f,c
  5667  00010A  A0D8               	btfss	status,0,c
  5668  00010C  063E               	decf	InterruptHandlerHigh@dd+1,f,c
  5669                           
  5670                           ; BSR set to: 0
  5671  00010E  0E01               	movlw	1
  5672  000110  6E03               	movwf	_TimerFlag,c
  5673  000112                     i2l4747:
  5674                           
  5675                           ; BSR set to: 0
  5676                           ;picuno.c: 123: TimerArray[i]=dd;
  5677  000112  503F               	movf	InterruptHandlerHigh@i,w,c
  5678  000114  0D02               	mullw	2
  5679  000116  0100               	movlb	0	; () banked
  5680  000118  0EA2               	movlw	low _TimerArray
  5681  00011A  24F3               	addwf	prodl,w,c
  5682  00011C  6ED9               	movwf	fsr2l,c
  5683  00011E  0100               	movlb	0	; () banked
  5684  000120  0E00               	movlw	high _TimerArray
  5685  000122  20F4               	addwfc	prodh,w,c
  5686  000124  6EDA               	movwf	fsr2h,c
  5687  000126  C03D  FFDE         	movff	InterruptHandlerHigh@dd,postinc2
  5688  00012A  C03E  FFDD         	movff	InterruptHandlerHigh@dd+1,postdec2
  5689                           
  5690                           ; BSR set to: 0
  5691  00012E  2A3F               	incf	InterruptHandlerHigh@i,f,c
  5692  000130                     L3:
  5693                           
  5694                           ; BSR set to: 0
  5695  000130  0E09               	movlw	9
  5696  000132  643F               	cpfsgt	InterruptHandlerHigh@i,c
  5697  000134  D7D7               	goto	i2l4739
  5698  000136                     i2l372:
  5699                           
  5700                           ;picuno.c: 124: }
  5701                           ;picuno.c: 125: }
  5702                           ;picuno.c: 126: }
  5703                           ;picuno.c: 128: if(RCIF){
  5704  000136  AA9E               	btfss	3998,5,c	;volatile
  5705  000138  D029               	goto	i2l4773
  5706                           
  5707                           ;picuno.c: 129: uart1_rx_char = RCREG1;
  5708  00013A  CFAE F01F          	movff	4014,_uart1_rx_char	;volatile
  5709                           
  5710                           ;picuno.c: 131: if(uart1_rx_cnt < 95)
  5711  00013E  0E5F               	movlw	95
  5712  000140  5C20               	subwf	_uart1_rx_cnt,w,c
  5713  000142  B0D8               	btfsc	status,0,c
  5714  000144  D00D               	goto	i2l4761
  5715                           
  5716                           ;picuno.c: 132: {
  5717                           ;picuno.c: 133: uart1_rxbuf[uart1_rx_cnt++] = uart1_rx_char;
  5718  000146  5020               	movf	_uart1_rx_cnt,w,c
  5719  000148  0D01               	mullw	1
  5720  00014A  0101               	movlb	1	; () banked
  5721  00014C  0E00               	movlw	low _uart1_rxbuf
  5722  00014E  24F3               	addwf	prodl,w,c
  5723  000150  6ED9               	movwf	fsr2l,c
  5724  000152  0101               	movlb	1	; () banked
  5725  000154  0E01               	movlw	high _uart1_rxbuf
  5726  000156  20F4               	addwfc	prodh,w,c
  5727  000158  6EDA               	movwf	fsr2h,c
  5728  00015A  C01F  FFDF         	movff	_uart1_rx_char,indf2
  5729                           
  5730                           ; BSR set to: 1
  5731  00015E  2A20               	incf	_uart1_rx_cnt,f,c
  5732  000160                     i2l4761:
  5733                           
  5734                           ;picuno.c: 134: }
  5735                           ;picuno.c: 135: uart1_rxbuf[uart1_rx_cnt]=0x00;
  5736  000160  5020               	movf	_uart1_rx_cnt,w,c
  5737  000162  0D01               	mullw	1
  5738  000164  0101               	movlb	1	; () banked
  5739  000166  0E00               	movlw	low _uart1_rxbuf
  5740  000168  24F3               	addwf	prodl,w,c
  5741  00016A  6ED9               	movwf	fsr2l,c
  5742  00016C  0101               	movlb	1	; () banked
  5743  00016E  0E01               	movlw	high _uart1_rxbuf
  5744  000170  20F4               	addwfc	prodh,w,c
  5745  000172  6EDA               	movwf	fsr2h,c
  5746  000174  0E00               	movlw	0
  5747  000176  6EDF               	movwf	indf2,c
  5748                           
  5749                           ; BSR set to: 1
  5750                           ;picuno.c: 136: if(uart1_rx_char==0x0D) uart1_cr_cnt++;
  5751  000178  501F               	movf	_uart1_rx_char,w,c
  5752  00017A  0A0D               	xorlw	13
  5753  00017C  B4D8               	btfsc	status,2,c
  5754                           
  5755                           ; BSR set to: 1
  5756  00017E  2A1D               	incf	_uart1_cr_cnt,f,c
  5757                           
  5758                           ; BSR set to: 1
  5759                           ;picuno.c: 137: if(uart1_rx_char==0x0A) uart1_lf_cnt++;
  5760                           
  5761                           ; BSR set to: 1
  5762  000180  501F               	movf	_uart1_rx_char,w,c
  5763  000182  0A0A               	xorlw	10
  5764  000184  B4D8               	btfsc	status,2,c
  5765                           
  5766                           ; BSR set to: 1
  5767  000186  2A1E               	incf	_uart1_lf_cnt,f,c
  5768                           
  5769                           ; BSR set to: 1
  5770                           ;picuno.c: 138: TmrRxd1=10;
  5771                           
  5772                           ; BSR set to: 1
  5773  000188  0E0A               	movlw	10
  5774  00018A  6E04               	movwf	_TmrRxd1,c
  5775  00018C                     i2l4773:
  5776                           
  5777                           ;picuno.c: 139: }
  5778                           ;picuno.c: 141: if(TXIE && TXIF)
  5779  00018C  B89D               	btfsc	3997,4,c	;volatile
  5780  00018E  A89E               	btfss	3998,4,c	;volatile
  5781  000190  D019               	goto	i2l4793
  5782                           
  5783                           ;picuno.c: 142: {
  5784                           ;picuno.c: 143: TXREG = uart1_txbuf[uart1_tx_pos++];
  5785  000192  5024               	movf	_uart1_tx_pos,w,c
  5786  000194  0D01               	mullw	1
  5787  000196  0100               	movlb	0	; () banked
  5788  000198  0E60               	movlw	low _uart1_txbuf
  5789  00019A  24F3               	addwf	prodl,w,c
  5790  00019C  6ED9               	movwf	fsr2l,c
  5791  00019E  0100               	movlb	0	; () banked
  5792  0001A0  0E00               	movlw	high _uart1_txbuf
  5793  0001A2  20F4               	addwfc	prodh,w,c
  5794  0001A4  6EDA               	movwf	fsr2h,c
  5795  0001A6  50DF               	movf	indf2,w,c
  5796  0001A8  6EAD               	movwf	4013,c	;volatile
  5797                           
  5798                           ; BSR set to: 0
  5799  0001AA  2A24               	incf	_uart1_tx_pos,f,c
  5800                           
  5801                           ; BSR set to: 0
  5802                           ;picuno.c: 144: if(uart1_tx_pos == 32) uart1_tx_pos = 0;
  5803  0001AC  5024               	movf	_uart1_tx_pos,w,c
  5804  0001AE  0A20               	xorlw	32
  5805  0001B0  A4D8               	btfss	status,2,c
  5806  0001B2  D002               	goto	i2l4785
  5807                           
  5808                           ; BSR set to: 0
  5809  0001B4  0E00               	movlw	0
  5810  0001B6  6E24               	movwf	_uart1_tx_pos,c
  5811  0001B8                     i2l4785:
  5812                           
  5813                           ; BSR set to: 0
  5814                           ;picuno.c: 145: uart1_tx_cnt--;
  5815  0001B8  0623               	decf	_uart1_tx_cnt,f,c
  5816                           
  5817                           ; BSR set to: 0
  5818                           ;picuno.c: 146: if(!uart1_tx_cnt)
  5819  0001BA  6623               	tstfsz	_uart1_tx_cnt,c
  5820  0001BC  D003               	goto	i2l4793
  5821                           
  5822                           ; BSR set to: 0
  5823                           ;picuno.c: 147: {
  5824                           ;picuno.c: 148: uart1_tx_pos = 0;
  5825  0001BE  0E00               	movlw	0
  5826  0001C0  6E24               	movwf	_uart1_tx_pos,c
  5827                           
  5828                           ; BSR set to: 0
  5829                           ;picuno.c: 149: TXIE = 0;
  5830  0001C2  989D               	bcf	3997,4,c	;volatile
  5831  0001C4                     i2l4793:
  5832                           
  5833                           ;picuno.c: 150: }
  5834                           ;picuno.c: 151: }
  5835                           ;picuno.c: 155: if(RC2IF){
  5836  0001C4  AAA4               	btfss	4004,5,c	;volatile
  5837  0001C6  D02D               	goto	i2l4817
  5838                           
  5839                           ;picuno.c: 156: if(RCSTA2bits.OERR2){
  5840  0001C8  A271               	btfss	3953,1,c	;volatile
  5841  0001CA  D002               	goto	i2l395
  5842                           
  5843                           ;picuno.c: 157: RCSTA2bits.CREN2 = 0;
  5844  0001CC  9871               	bcf	3953,4,c	;volatile
  5845                           
  5846                           ;picuno.c: 158: RCSTA2bits.CREN2 = 1;
  5847  0001CE  8871               	bsf	3953,4,c	;volatile
  5848  0001D0                     i2l395:
  5849                           
  5850                           ;picuno.c: 159: }
  5851                           ;picuno.c: 160: uart2_rx_char = RCREG2;
  5852  0001D0  CF74 F027          	movff	3956,_uart2_rx_char	;volatile
  5853                           
  5854                           ;picuno.c: 162: if(uart2_rx_cnt < 95)
  5855  0001D4  0E5F               	movlw	95
  5856  0001D6  5C28               	subwf	_uart2_rx_cnt,w,c
  5857  0001D8  B0D8               	btfsc	status,0,c
  5858  0001DA  D00D               	goto	i2l4805
  5859                           
  5860                           ;picuno.c: 163: {
  5861                           ;picuno.c: 164: uart2_rxbuf[uart2_rx_cnt++] = uart2_rx_char;
  5862  0001DC  5028               	movf	_uart2_rx_cnt,w,c
  5863  0001DE  0D01               	mullw	1
  5864  0001E0  0101               	movlb	1	; () banked
  5865  0001E2  0E60               	movlw	low _uart2_rxbuf
  5866  0001E4  24F3               	addwf	prodl,w,c
  5867  0001E6  6ED9               	movwf	fsr2l,c
  5868  0001E8  0101               	movlb	1	; () banked
  5869  0001EA  0E01               	movlw	high _uart2_rxbuf
  5870  0001EC  20F4               	addwfc	prodh,w,c
  5871  0001EE  6EDA               	movwf	fsr2h,c
  5872  0001F0  C027  FFDF         	movff	_uart2_rx_char,indf2
  5873                           
  5874                           ; BSR set to: 1
  5875  0001F4  2A28               	incf	_uart2_rx_cnt,f,c
  5876  0001F6                     i2l4805:
  5877                           
  5878                           ;picuno.c: 165: }
  5879                           ;picuno.c: 166: uart2_rxbuf[uart2_rx_cnt]=0x00;
  5880  0001F6  5028               	movf	_uart2_rx_cnt,w,c
  5881  0001F8  0D01               	mullw	1
  5882  0001FA  0101               	movlb	1	; () banked
  5883  0001FC  0E60               	movlw	low _uart2_rxbuf
  5884  0001FE  24F3               	addwf	prodl,w,c
  5885  000200  6ED9               	movwf	fsr2l,c
  5886  000202  0101               	movlb	1	; () banked
  5887  000204  0E01               	movlw	high _uart2_rxbuf
  5888  000206  20F4               	addwfc	prodh,w,c
  5889  000208  6EDA               	movwf	fsr2h,c
  5890  00020A  0E00               	movlw	0
  5891  00020C  6EDF               	movwf	indf2,c
  5892                           
  5893                           ; BSR set to: 1
  5894                           ;picuno.c: 167: if(uart2_rx_char==0x0D) uart2_cr_cnt++;
  5895  00020E  5027               	movf	_uart2_rx_char,w,c
  5896  000210  0A0D               	xorlw	13
  5897  000212  B4D8               	btfsc	status,2,c
  5898                           
  5899                           ; BSR set to: 1
  5900  000214  2A25               	incf	_uart2_cr_cnt,f,c
  5901                           
  5902                           ; BSR set to: 1
  5903                           ;picuno.c: 168: if(uart2_rx_char==0x0A) uart2_lf_cnt++;
  5904                           
  5905                           ; BSR set to: 1
  5906  000216  5027               	movf	_uart2_rx_char,w,c
  5907  000218  0A0A               	xorlw	10
  5908  00021A  B4D8               	btfsc	status,2,c
  5909                           
  5910                           ; BSR set to: 1
  5911  00021C  2A26               	incf	_uart2_lf_cnt,f,c
  5912                           
  5913                           ; BSR set to: 1
  5914                           ;picuno.c: 169: TmrRxd2=10;
  5915                           
  5916                           ; BSR set to: 1
  5917  00021E  0E0A               	movlw	10
  5918  000220  6E05               	movwf	_TmrRxd2,c
  5919  000222                     i2l4817:
  5920                           
  5921                           ;picuno.c: 170: }
  5922                           ;picuno.c: 172: if(TX2IE && TX2IF)
  5923  000222  B8A3               	btfsc	4003,4,c	;volatile
  5924  000224  A8A4               	btfss	4004,4,c	;volatile
  5925  000226  D019               	goto	i2l402
  5926                           
  5927                           ;picuno.c: 173: {
  5928                           ;picuno.c: 174: TXREG2 = uart2_txbuf[uart2_tx_pos++];
  5929  000228  502C               	movf	_uart2_tx_pos,w,c
  5930  00022A  0D01               	mullw	1
  5931  00022C  0100               	movlb	0	; () banked
  5932  00022E  0E81               	movlw	low _uart2_txbuf
  5933  000230  24F3               	addwf	prodl,w,c
  5934  000232  6ED9               	movwf	fsr2l,c
  5935  000234  0100               	movlb	0	; () banked
  5936  000236  0E00               	movlw	high _uart2_txbuf
  5937  000238  20F4               	addwfc	prodh,w,c
  5938  00023A  6EDA               	movwf	fsr2h,c
  5939  00023C  50DF               	movf	indf2,w,c
  5940  00023E  6E73               	movwf	3955,c	;volatile
  5941                           
  5942                           ; BSR set to: 0
  5943  000240  2A2C               	incf	_uart2_tx_pos,f,c
  5944                           
  5945                           ; BSR set to: 0
  5946                           ;picuno.c: 175: if(uart2_tx_pos == 32) uart2_tx_pos = 0;
  5947  000242  502C               	movf	_uart2_tx_pos,w,c
  5948  000244  0A20               	xorlw	32
  5949  000246  A4D8               	btfss	status,2,c
  5950  000248  D002               	goto	i2l4829
  5951                           
  5952                           ; BSR set to: 0
  5953  00024A  0E00               	movlw	0
  5954  00024C  6E2C               	movwf	_uart2_tx_pos,c
  5955  00024E                     i2l4829:
  5956                           
  5957                           ; BSR set to: 0
  5958                           ;picuno.c: 176: uart2_tx_cnt--;
  5959  00024E  062B               	decf	_uart2_tx_cnt,f,c
  5960                           
  5961                           ; BSR set to: 0
  5962                           ;picuno.c: 177: if(!uart2_tx_cnt)
  5963  000250  662B               	tstfsz	_uart2_tx_cnt,c
  5964  000252  D003               	goto	i2l402
  5965                           
  5966                           ; BSR set to: 0
  5967                           ;picuno.c: 178: {
  5968                           ;picuno.c: 179: uart2_tx_pos = 0;
  5969  000254  0E00               	movlw	0
  5970  000256  6E2C               	movwf	_uart2_tx_pos,c
  5971                           
  5972                           ; BSR set to: 0
  5973                           ;picuno.c: 180: TX2IE = 0;
  5974  000258  98A3               	bcf	4003,4,c	;volatile
  5975  00025A                     i2l402:
  5976  00025A  C03C  FFF5         	movff	??_InterruptHandlerHigh+13,tablat
  5977  00025E  C03B  FFF8         	movff	??_InterruptHandlerHigh+12,tblptru
  5978  000262  C03A  FFF7         	movff	??_InterruptHandlerHigh+11,tblptrh
  5979  000266  C039  FFF6         	movff	??_InterruptHandlerHigh+10,tblptrl
  5980  00026A  C038  FFF4         	movff	??_InterruptHandlerHigh+9,prodh
  5981  00026E  C037  FFF3         	movff	??_InterruptHandlerHigh+8,prodl
  5982  000272  C036  FFDA         	movff	??_InterruptHandlerHigh+7,fsr2h
  5983  000276  C035  FFD9         	movff	??_InterruptHandlerHigh+6,fsr2l
  5984  00027A  C034  FFE2         	movff	??_InterruptHandlerHigh+5,fsr1h
  5985  00027E  C033  FFE1         	movff	??_InterruptHandlerHigh+4,fsr1l
  5986  000282  C032  FFEA         	movff	??_InterruptHandlerHigh+3,fsr0h
  5987  000286  C031  FFE9         	movff	??_InterruptHandlerHigh+2,fsr0l
  5988  00028A  C030  FFFB         	movff	??_InterruptHandlerHigh+1,pclatu
  5989  00028E  C02F  FFFA         	movff	??_InterruptHandlerHigh,pclath
  5990  000292  0011               	retfie		f
  5991  000294                     __end_of_InterruptHandlerHigh:
  5992                           	opt stack 0
  5993                           pclatu	equ	0xFFB
  5994                           pclath	equ	0xFFA
  5995                           tblptru	equ	0xFF8
  5996                           tblptrh	equ	0xFF7
  5997                           tblptrl	equ	0xFF6
  5998                           tablat	equ	0xFF5
  5999                           prodh	equ	0xFF4
  6000                           prodl	equ	0xFF3
  6001                           intcon	equ	0xFF2
  6002                           intcon2	equ	0xFF1
  6003                           intcon3	equ	0xFF0
  6004                           postinc0	equ	0xFEE
  6005                           fsr0h	equ	0xFEA
  6006                           fsr0l	equ	0xFE9
  6007                           wreg	equ	0xFE8
  6008                           postdec1	equ	0xFE5
  6009                           fsr1h	equ	0xFE2
  6010                           fsr1l	equ	0xFE1
  6011                           indf2	equ	0xFDF
  6012                           postinc2	equ	0xFDE
  6013                           postdec2	equ	0xFDD
  6014                           fsr2h	equ	0xFDA
  6015                           fsr2l	equ	0xFD9
  6016                           status	equ	0xFD8
  6017                           
  6018 ;; *************** function _INT2_ISR *****************
  6019 ;; Defined at:
  6020 ;;		line 3195 in file "../../picuno/picuno.c"
  6021 ;; Parameters:    Size  Location     Type
  6022 ;;		None
  6023 ;; Auto vars:     Size  Location     Type
  6024 ;;		None
  6025 ;; Return value:  Size  Location     Type
  6026 ;;		None               void
  6027 ;; Registers used:
  6028 ;;		wreg, status,2, status,0, cstack
  6029 ;; Tracked objects:
  6030 ;;		On entry : 0/0
  6031 ;;		On exit  : 0/0
  6032 ;;		Unchanged: 0/0
  6033 ;; Data sizes:     COMRAM   BANK0   BANK1   BANK2   BANK3   BANK4   BANK5
  6034 ;;      Params:         0       0       0       0       0       0       0
  6035 ;;      Locals:         0       0       0       0       0       0       0
  6036 ;;      Temps:          0       0       0       0       0       0       0
  6037 ;;      Totals:         0       0       0       0       0       0       0
  6038 ;;Total ram usage:        0 bytes
  6039 ;; Hardware stack levels used:    1
  6040 ;; Hardware stack levels required when called:    1
  6041 ;; This function calls:
  6042 ;;		_INT2_CallBack
  6043 ;; This function is called by:
  6044 ;;		_InterruptHandlerHigh
  6045 ;; This function uses a non-reentrant model
  6046 ;;
  6047                           
  6048                           	psect	text24
  6049  0015A2                     __ptext24:
  6050                           	opt stack 0
  6051  0015A2                     _INT2_ISR:
  6052                           	opt stack 21
  6053                           
  6054                           ;picuno.c: 3197: (INTCON3bits.INT2IF = 0);
  6055                           
  6056                           ;incstack = 0
  6057  0015A2  92F0               	bcf	intcon3,1,c	;volatile
  6058                           
  6059                           ;picuno.c: 3200: INT2_CallBack();
  6060  0015A4  ECE1  F00A         	call	_INT2_CallBack	;wreg free
  6061  0015A8  0012               	return	
  6062  0015AA                     __end_of_INT2_ISR:
  6063                           	opt stack 0
  6064                           pclatu	equ	0xFFB
  6065                           pclath	equ	0xFFA
  6066                           tblptru	equ	0xFF8
  6067                           tblptrh	equ	0xFF7
  6068                           tblptrl	equ	0xFF6
  6069                           tablat	equ	0xFF5
  6070                           prodh	equ	0xFF4
  6071                           prodl	equ	0xFF3
  6072                           intcon	equ	0xFF2
  6073                           intcon2	equ	0xFF1
  6074                           intcon3	equ	0xFF0
  6075                           postinc0	equ	0xFEE
  6076                           fsr0h	equ	0xFEA
  6077                           fsr0l	equ	0xFE9
  6078                           wreg	equ	0xFE8
  6079                           postdec1	equ	0xFE5
  6080                           fsr1h	equ	0xFE2
  6081                           fsr1l	equ	0xFE1
  6082                           indf2	equ	0xFDF
  6083                           postinc2	equ	0xFDE
  6084                           postdec2	equ	0xFDD
  6085                           fsr2h	equ	0xFDA
  6086                           fsr2l	equ	0xFD9
  6087                           status	equ	0xFD8
  6088                           
  6089 ;; *************** function _INT2_CallBack *****************
  6090 ;; Defined at:
  6091 ;;		line 3204 in file "../../picuno/picuno.c"
  6092 ;; Parameters:    Size  Location     Type
  6093 ;;		None
  6094 ;; Auto vars:     Size  Location     Type
  6095 ;;		None
  6096 ;; Return value:  Size  Location     Type
  6097 ;;		None               void
  6098 ;; Registers used:
  6099 ;;		wreg, status,2, status,0
  6100 ;; Tracked objects:
  6101 ;;		On entry : 0/0
  6102 ;;		On exit  : 0/0
  6103 ;;		Unchanged: 0/0
  6104 ;; Data sizes:     COMRAM   BANK0   BANK1   BANK2   BANK3   BANK4   BANK5
  6105 ;;      Params:         0       0       0       0       0       0       0
  6106 ;;      Locals:         0       0       0       0       0       0       0
  6107 ;;      Temps:          0       0       0       0       0       0       0
  6108 ;;      Totals:         0       0       0       0       0       0       0
  6109 ;;Total ram usage:        0 bytes
  6110 ;; Hardware stack levels used:    1
  6111 ;; This function calls:
  6112 ;;		Nothing
  6113 ;; This function is called by:
  6114 ;;		_INT2_ISR
  6115 ;; This function uses a non-reentrant model
  6116 ;;
  6117                           
  6118                           	psect	text25
  6119  0015C2                     __ptext25:
  6120                           	opt stack 0
  6121  0015C2                     _INT2_CallBack:
  6122                           	opt stack 21
  6123                           
  6124                           ;incstack = 0
  6125  0015C2  0012               	return	
  6126  0015C4                     __end_of_INT2_CallBack:
  6127                           	opt stack 0
  6128                           pclatu	equ	0xFFB
  6129                           pclath	equ	0xFFA
  6130                           tblptru	equ	0xFF8
  6131                           tblptrh	equ	0xFF7
  6132                           tblptrl	equ	0xFF6
  6133                           tablat	equ	0xFF5
  6134                           prodh	equ	0xFF4
  6135                           prodl	equ	0xFF3
  6136                           intcon	equ	0xFF2
  6137                           intcon2	equ	0xFF1
  6138                           intcon3	equ	0xFF0
  6139                           postinc0	equ	0xFEE
  6140                           fsr0h	equ	0xFEA
  6141                           fsr0l	equ	0xFE9
  6142                           wreg	equ	0xFE8
  6143                           postdec1	equ	0xFE5
  6144                           fsr1h	equ	0xFE2
  6145                           fsr1l	equ	0xFE1
  6146                           indf2	equ	0xFDF
  6147                           postinc2	equ	0xFDE
  6148                           postdec2	equ	0xFDD
  6149                           fsr2h	equ	0xFDA
  6150                           fsr2l	equ	0xFD9
  6151                           status	equ	0xFD8
  6152                           
  6153 ;; *************** function _INT1_ISR *****************
  6154 ;; Defined at:
  6155 ;;		line 3174 in file "../../picuno/picuno.c"
  6156 ;; Parameters:    Size  Location     Type
  6157 ;;		None
  6158 ;; Auto vars:     Size  Location     Type
  6159 ;;		None
  6160 ;; Return value:  Size  Location     Type
  6161 ;;		None               void
  6162 ;; Registers used:
  6163 ;;		wreg, status,2, status,0, cstack
  6164 ;; Tracked objects:
  6165 ;;		On entry : 0/0
  6166 ;;		On exit  : 0/0
  6167 ;;		Unchanged: 0/0
  6168 ;; Data sizes:     COMRAM   BANK0   BANK1   BANK2   BANK3   BANK4   BANK5
  6169 ;;      Params:         0       0       0       0       0       0       0
  6170 ;;      Locals:         0       0       0       0       0       0       0
  6171 ;;      Temps:          0       0       0       0       0       0       0
  6172 ;;      Totals:         0       0       0       0       0       0       0
  6173 ;;Total ram usage:        0 bytes
  6174 ;; Hardware stack levels used:    1
  6175 ;; Hardware stack levels required when called:    1
  6176 ;; This function calls:
  6177 ;;		_INT1_CallBack
  6178 ;; This function is called by:
  6179 ;;		_InterruptHandlerHigh
  6180 ;; This function uses a non-reentrant model
  6181 ;;
  6182                           
  6183                           	psect	text26
  6184  0015AA                     __ptext26:
  6185                           	opt stack 0
  6186  0015AA                     _INT1_ISR:
  6187                           	opt stack 21
  6188                           
  6189                           ;picuno.c: 3176: (INTCON3bits.INT1IF = 0);
  6190                           
  6191                           ;incstack = 0
  6192  0015AA  90F0               	bcf	intcon3,0,c	;volatile
  6193                           
  6194                           ;picuno.c: 3179: INT1_CallBack();
  6195  0015AC  ECE2  F00A         	call	_INT1_CallBack	;wreg free
  6196  0015B0  0012               	return	
  6197  0015B2                     __end_of_INT1_ISR:
  6198                           	opt stack 0
  6199                           pclatu	equ	0xFFB
  6200                           pclath	equ	0xFFA
  6201                           tblptru	equ	0xFF8
  6202                           tblptrh	equ	0xFF7
  6203                           tblptrl	equ	0xFF6
  6204                           tablat	equ	0xFF5
  6205                           prodh	equ	0xFF4
  6206                           prodl	equ	0xFF3
  6207                           intcon	equ	0xFF2
  6208                           intcon2	equ	0xFF1
  6209                           intcon3	equ	0xFF0
  6210                           postinc0	equ	0xFEE
  6211                           fsr0h	equ	0xFEA
  6212                           fsr0l	equ	0xFE9
  6213                           wreg	equ	0xFE8
  6214                           postdec1	equ	0xFE5
  6215                           fsr1h	equ	0xFE2
  6216                           fsr1l	equ	0xFE1
  6217                           indf2	equ	0xFDF
  6218                           postinc2	equ	0xFDE
  6219                           postdec2	equ	0xFDD
  6220                           fsr2h	equ	0xFDA
  6221                           fsr2l	equ	0xFD9
  6222                           status	equ	0xFD8
  6223                           
  6224 ;; *************** function _INT1_CallBack *****************
  6225 ;; Defined at:
  6226 ;;		line 3182 in file "../../picuno/picuno.c"
  6227 ;; Parameters:    Size  Location     Type
  6228 ;;		None
  6229 ;; Auto vars:     Size  Location     Type
  6230 ;;		None
  6231 ;; Return value:  Size  Location     Type
  6232 ;;		None               void
  6233 ;; Registers used:
  6234 ;;		wreg, status,2, status,0
  6235 ;; Tracked objects:
  6236 ;;		On entry : 0/0
  6237 ;;		On exit  : 0/0
  6238 ;;		Unchanged: 0/0
  6239 ;; Data sizes:     COMRAM   BANK0   BANK1   BANK2   BANK3   BANK4   BANK5
  6240 ;;      Params:         0       0       0       0       0       0       0
  6241 ;;      Locals:         0       0       0       0       0       0       0
  6242 ;;      Temps:          0       0       0       0       0       0       0
  6243 ;;      Totals:         0       0       0       0       0       0       0
  6244 ;;Total ram usage:        0 bytes
  6245 ;; Hardware stack levels used:    1
  6246 ;; This function calls:
  6247 ;;		Nothing
  6248 ;; This function is called by:
  6249 ;;		_INT1_ISR
  6250 ;; This function uses a non-reentrant model
  6251 ;;
  6252                           
  6253                           	psect	text27
  6254  0015C4                     __ptext27:
  6255                           	opt stack 0
  6256  0015C4                     _INT1_CallBack:
  6257                           	opt stack 21
  6258                           
  6259                           ;incstack = 0
  6260  0015C4  0012               	return	
  6261  0015C6                     __end_of_INT1_CallBack:
  6262                           	opt stack 0
  6263                           pclatu	equ	0xFFB
  6264                           pclath	equ	0xFFA
  6265                           tblptru	equ	0xFF8
  6266                           tblptrh	equ	0xFF7
  6267                           tblptrl	equ	0xFF6
  6268                           tablat	equ	0xFF5
  6269                           prodh	equ	0xFF4
  6270                           prodl	equ	0xFF3
  6271                           intcon	equ	0xFF2
  6272                           intcon2	equ	0xFF1
  6273                           intcon3	equ	0xFF0
  6274                           postinc0	equ	0xFEE
  6275                           fsr0h	equ	0xFEA
  6276                           fsr0l	equ	0xFE9
  6277                           wreg	equ	0xFE8
  6278                           postdec1	equ	0xFE5
  6279                           fsr1h	equ	0xFE2
  6280                           fsr1l	equ	0xFE1
  6281                           indf2	equ	0xFDF
  6282                           postinc2	equ	0xFDE
  6283                           postdec2	equ	0xFDD
  6284                           fsr2h	equ	0xFDA
  6285                           fsr2l	equ	0xFD9
  6286                           status	equ	0xFD8
  6287                           
  6288 ;; *************** function _INT0_ISR *****************
  6289 ;; Defined at:
  6290 ;;		line 3153 in file "../../picuno/picuno.c"
  6291 ;; Parameters:    Size  Location     Type
  6292 ;;		None
  6293 ;; Auto vars:     Size  Location     Type
  6294 ;;		None
  6295 ;; Return value:  Size  Location     Type
  6296 ;;		None               void
  6297 ;; Registers used:
  6298 ;;		wreg, status,2, status,0, cstack
  6299 ;; Tracked objects:
  6300 ;;		On entry : 0/0
  6301 ;;		On exit  : 0/0
  6302 ;;		Unchanged: 0/0
  6303 ;; Data sizes:     COMRAM   BANK0   BANK1   BANK2   BANK3   BANK4   BANK5
  6304 ;;      Params:         0       0       0       0       0       0       0
  6305 ;;      Locals:         0       0       0       0       0       0       0
  6306 ;;      Temps:          0       0       0       0       0       0       0
  6307 ;;      Totals:         0       0       0       0       0       0       0
  6308 ;;Total ram usage:        0 bytes
  6309 ;; Hardware stack levels used:    1
  6310 ;; Hardware stack levels required when called:    1
  6311 ;; This function calls:
  6312 ;;		_INT0_CallBack
  6313 ;; This function is called by:
  6314 ;;		_InterruptHandlerHigh
  6315 ;; This function uses a non-reentrant model
  6316 ;;
  6317                           
  6318                           	psect	text28
  6319  0015B2                     __ptext28:
  6320                           	opt stack 0
  6321  0015B2                     _INT0_ISR:
  6322                           	opt stack 21
  6323                           
  6324                           ;picuno.c: 3155: (INTCONbits.INT0IF = 0);
  6325                           
  6326                           ;incstack = 0
  6327  0015B2  92F2               	bcf	intcon,1,c	;volatile
  6328                           
  6329                           ;picuno.c: 3158: INT0_CallBack();
  6330  0015B4  ECE3  F00A         	call	_INT0_CallBack	;wreg free
  6331  0015B8  0012               	return	
  6332  0015BA                     __end_of_INT0_ISR:
  6333                           	opt stack 0
  6334                           pclatu	equ	0xFFB
  6335                           pclath	equ	0xFFA
  6336                           tblptru	equ	0xFF8
  6337                           tblptrh	equ	0xFF7
  6338                           tblptrl	equ	0xFF6
  6339                           tablat	equ	0xFF5
  6340                           prodh	equ	0xFF4
  6341                           prodl	equ	0xFF3
  6342                           intcon	equ	0xFF2
  6343                           intcon2	equ	0xFF1
  6344                           intcon3	equ	0xFF0
  6345                           postinc0	equ	0xFEE
  6346                           fsr0h	equ	0xFEA
  6347                           fsr0l	equ	0xFE9
  6348                           wreg	equ	0xFE8
  6349                           postdec1	equ	0xFE5
  6350                           fsr1h	equ	0xFE2
  6351                           fsr1l	equ	0xFE1
  6352                           indf2	equ	0xFDF
  6353                           postinc2	equ	0xFDE
  6354                           postdec2	equ	0xFDD
  6355                           fsr2h	equ	0xFDA
  6356                           fsr2l	equ	0xFD9
  6357                           status	equ	0xFD8
  6358                           
  6359 ;; *************** function _INT0_CallBack *****************
  6360 ;; Defined at:
  6361 ;;		line 3161 in file "../../picuno/picuno.c"
  6362 ;; Parameters:    Size  Location     Type
  6363 ;;		None
  6364 ;; Auto vars:     Size  Location     Type
  6365 ;;		None
  6366 ;; Return value:  Size  Location     Type
  6367 ;;		None               void
  6368 ;; Registers used:
  6369 ;;		wreg, status,2, status,0
  6370 ;; Tracked objects:
  6371 ;;		On entry : 0/0
  6372 ;;		On exit  : 0/0
  6373 ;;		Unchanged: 0/0
  6374 ;; Data sizes:     COMRAM   BANK0   BANK1   BANK2   BANK3   BANK4   BANK5
  6375 ;;      Params:         0       0       0       0       0       0       0
  6376 ;;      Locals:         0       0       0       0       0       0       0
  6377 ;;      Temps:          0       0       0       0       0       0       0
  6378 ;;      Totals:         0       0       0       0       0       0       0
  6379 ;;Total ram usage:        0 bytes
  6380 ;; Hardware stack levels used:    1
  6381 ;; This function calls:
  6382 ;;		Nothing
  6383 ;; This function is called by:
  6384 ;;		_INT0_ISR
  6385 ;; This function uses a non-reentrant model
  6386 ;;
  6387                           
  6388                           	psect	text29
  6389  0015C6                     __ptext29:
  6390                           	opt stack 0
  6391  0015C6                     _INT0_CallBack:
  6392                           	opt stack 21
  6393                           
  6394                           ;incstack = 0
  6395  0015C6  0012               	return	
  6396  0015C8                     __end_of_INT0_CallBack:
  6397                           	opt stack 0
  6398                           pclatu	equ	0xFFB
  6399                           pclath	equ	0xFFA
  6400                           tblptru	equ	0xFF8
  6401                           tblptrh	equ	0xFF7
  6402                           tblptrl	equ	0xFF6
  6403                           tablat	equ	0xFF5
  6404                           prodh	equ	0xFF4
  6405                           prodl	equ	0xFF3
  6406                           intcon	equ	0xFF2
  6407                           intcon2	equ	0xFF1
  6408                           intcon3	equ	0xFF0
  6409                           postinc0	equ	0xFEE
  6410                           fsr0h	equ	0xFEA
  6411                           fsr0l	equ	0xFE9
  6412                           wreg	equ	0xFE8
  6413                           postdec1	equ	0xFE5
  6414                           fsr1h	equ	0xFE2
  6415                           fsr1l	equ	0xFE1
  6416                           indf2	equ	0xFDF
  6417                           postinc2	equ	0xFDE
  6418                           postdec2	equ	0xFDD
  6419                           fsr2h	equ	0xFDA
  6420                           fsr2l	equ	0xFD9
  6421                           status	equ	0xFD8
  6422                           pclatu	equ	0xFFB
  6423                           pclath	equ	0xFFA
  6424                           tblptru	equ	0xFF8
  6425                           tblptrh	equ	0xFF7
  6426                           tblptrl	equ	0xFF6
  6427                           tablat	equ	0xFF5
  6428                           prodh	equ	0xFF4
  6429                           prodl	equ	0xFF3
  6430                           intcon	equ	0xFF2
  6431                           intcon2	equ	0xFF1
  6432                           intcon3	equ	0xFF0
  6433                           postinc0	equ	0xFEE
  6434                           fsr0h	equ	0xFEA
  6435                           fsr0l	equ	0xFE9
  6436                           wreg	equ	0xFE8
  6437                           postdec1	equ	0xFE5
  6438                           fsr1h	equ	0xFE2
  6439                           fsr1l	equ	0xFE1
  6440                           indf2	equ	0xFDF
  6441                           postinc2	equ	0xFDE
  6442                           postdec2	equ	0xFDD
  6443                           fsr2h	equ	0xFDA
  6444                           fsr2l	equ	0xFD9
  6445                           status	equ	0xFD8
  6446                           
  6447                           	psect	rparam
  6448  0000                     pclatu	equ	0xFFB
  6449                           pclath	equ	0xFFA
  6450                           tblptru	equ	0xFF8
  6451                           tblptrh	equ	0xFF7
  6452                           tblptrl	equ	0xFF6
  6453                           tablat	equ	0xFF5
  6454                           prodh	equ	0xFF4
  6455                           prodl	equ	0xFF3
  6456                           intcon	equ	0xFF2
  6457                           intcon2	equ	0xFF1
  6458                           intcon3	equ	0xFF0
  6459                           postinc0	equ	0xFEE
  6460                           fsr0h	equ	0xFEA
  6461                           fsr0l	equ	0xFE9
  6462                           wreg	equ	0xFE8
  6463                           postdec1	equ	0xFE5
  6464                           fsr1h	equ	0xFE2
  6465                           fsr1l	equ	0xFE1
  6466                           indf2	equ	0xFDF
  6467                           postinc2	equ	0xFDE
  6468                           postdec2	equ	0xFDD
  6469                           fsr2h	equ	0xFDA
  6470                           fsr2l	equ	0xFD9
  6471                           status	equ	0xFD8


Data Sizes:
    Strings     12
    Constant    0
    Data        4
    BSS         349
    Persistent  0
    Stack       0

Auto Spaces:
    Space          Size  Autos    Used
    COMRAM           95     28      78
    BANK0           160     19     130
    BANK1           256      0     192
    BANK2           256      0       0
    BANK3           256      0       0
    BANK4           256      0       0
    BANK5           256      0       0

Pointer List with Targets:

    INT2_InterruptHandler	PTR FTN()void  size(2) Largest target is 0
		 -> Absolute function(), 

    INT1_InterruptHandler	PTR FTN()void  size(2) Largest target is 0
		 -> Absolute function(), 

    INT0_InterruptHandler	PTR FTN()void  size(2) Largest target is 0
		 -> Absolute function(), 

    lcd_print@str	PTR const unsigned char  size(2) Largest target is 12
		 -> STR_1(CODE[12]), 


Critical Paths under _main in COMRAM

    _setup->_lcd_init_i2c
    _lcd_setCursor->_lcd_putdata
    _lcd_print->_lcd_putc
    _lcd_putc->_lcd_putdata
    _lcd_init_i2c->_lcd_begin
    _lcd_begin->_lcd_putdata
    _lcd_putdata->_e_pulse
    _lcd_nibble->_digitalWrite
    _e_pulse->_i2c_out
    _i2c_out->_i2c_idle
    _i2c_init->___lldiv
    _pinMode->_analogInput

Critical Paths under _InterruptHandlerHigh in COMRAM

    None.

Critical Paths under _main in BANK0

    _setup->_lcd_init_i2c
    _lcd_init_i2c->_i2c_init
    _i2c_init->___lldiv

Critical Paths under _InterruptHandlerHigh in BANK0

    None.

Critical Paths under _main in BANK1

    None.

Critical Paths under _InterruptHandlerHigh in BANK1

    None.

Critical Paths under _main in BANK2

    None.

Critical Paths under _InterruptHandlerHigh in BANK2

    None.

Critical Paths under _main in BANK3

    None.

Critical Paths under _InterruptHandlerHigh in BANK3

    None.

Critical Paths under _main in BANK4

    None.

Critical Paths under _InterruptHandlerHigh in BANK4

    None.

Critical Paths under _main in BANK5

    None.

Critical Paths under _InterruptHandlerHigh in BANK5

    None.

Call Graph Tables:

 ---------------------------------------------------------------------------------
 (Depth) Function   	        Calls       Base Space   Used Autos Params    Refs
 ---------------------------------------------------------------------------------
 (0) _main                                                 0     0      0   47784
                               _init
                               _loop
                              _setup
                               _sync
                               _task
 ---------------------------------------------------------------------------------
 (1) _task                                                 0     0      0       0
 ---------------------------------------------------------------------------------
 (1) _sync                                                 0     0      0       0
 ---------------------------------------------------------------------------------
 (1) _setup                                                0     0      0   47716
                       _lcd_init_i2c
                          _lcd_print
                      _lcd_setCursor
 ---------------------------------------------------------------------------------
 (2) _lcd_setCursor                                        2     1      1   10978
                                             24 COMRAM     2     1      1
                           _lcdDelay
                        _lcd_putdata
 ---------------------------------------------------------------------------------
 (2) _lcd_print                                            2     0      2   14613
                                              0 BANK0      2     0      2
                           _lcd_putc
 ---------------------------------------------------------------------------------
 (3) _lcd_putc                                             3     3      0   14471
                                             24 COMRAM     3     3      0
                       _digitalWrite
                            _e_pulse
                            _i2c_out
                        _lcd_putdata
 ---------------------------------------------------------------------------------
 (2) _lcd_init_i2c                                         3     1      2   22125
                                             27 COMRAM     1     1      0
                                             17 BANK0      2     0      2
                           _i2c_init
                          _lcd_begin
 ---------------------------------------------------------------------------------
 (3) _lcd_begin                                            4     3      1   16548
                                             24 COMRAM     3     2      1
                              _delay
                            _e_pulse
                            _i2c_out
                           _lcdDelay
                         _lcd_nibble
                        _lcd_putdata
 ---------------------------------------------------------------------------------
 (3) _lcd_putdata                                          2     2      0    9223
                                             22 COMRAM     2     2      0
                       _digitalWrite
                            _e_pulse
                            _i2c_out
                         _lcd_nibble
 ---------------------------------------------------------------------------------
 (4) _lcd_nibble                                           1     1      0    3824
                                             19 COMRAM     1     1      0
                       _digitalWrite
 ---------------------------------------------------------------------------------
 (5) _digitalWrite                                         2     1      1    3736
                                             17 COMRAM     2     1      1
 ---------------------------------------------------------------------------------
 (4) _e_pulse                                              2     2      0     689
                                             20 COMRAM     2     2      0
                            _i2c_out
 ---------------------------------------------------------------------------------
 (4) _i2c_out                                              2     1      1     620
                                             18 COMRAM     2     1      1
                           _i2c_idle
 ---------------------------------------------------------------------------------
 (5) _i2c_idle                                             1     1      0       0
                                             17 COMRAM     1     1      0
 ---------------------------------------------------------------------------------
 (3) _lcdDelay                                             4     2      2    1647
                                             17 COMRAM     4     2      2
 ---------------------------------------------------------------------------------
 (4) _delay                                                4     2      2     303
                                             17 COMRAM     4     2      2
 ---------------------------------------------------------------------------------
 (3) _i2c_init                                            12     8      4    5268
                                              5 BANK0     12     8      4
                            ___lldiv
                            _pinMode
 ---------------------------------------------------------------------------------
 (4) _pinMode                                              2     1      1    4149
                                             21 COMRAM     2     1      1
                        _analogInput
 ---------------------------------------------------------------------------------
 (5) _analogInput                                          4     4      0      45
                                             17 COMRAM     4     4      0
 ---------------------------------------------------------------------------------
 (4) ___lldiv                                             13     5      8    1011
                                             17 COMRAM     8     0      8
                                              0 BANK0      5     5      0
 ---------------------------------------------------------------------------------
 (1) _loop                                                 0     0      0       0
 ---------------------------------------------------------------------------------
 (1) _init                                                 1     1      0      68
                                             17 COMRAM     1     1      0
 ---------------------------------------------------------------------------------
 Estimated maximum stack depth 5
 ---------------------------------------------------------------------------------
 (Depth) Function   	        Calls       Base Space   Used Autos Params    Refs
 ---------------------------------------------------------------------------------
 (8) _InterruptHandlerHigh                                17    17      0     136
                                              0 COMRAM    17    17      0
                           _INT0_ISR
                           _INT1_ISR
                           _INT2_ISR
 ---------------------------------------------------------------------------------
 (9) _INT2_ISR                                             0     0      0       0
                      _INT2_CallBack
 ---------------------------------------------------------------------------------
 (10) _INT2_CallBack                                       0     0      0       0
 ---------------------------------------------------------------------------------
 (9) _INT1_ISR                                             0     0      0       0
                      _INT1_CallBack
 ---------------------------------------------------------------------------------
 (10) _INT1_CallBack                                       0     0      0       0
 ---------------------------------------------------------------------------------
 (9) _INT0_ISR                                             0     0      0       0
                      _INT0_CallBack
 ---------------------------------------------------------------------------------
 (10) _INT0_CallBack                                       0     0      0       0
 ---------------------------------------------------------------------------------
 Estimated maximum stack depth 10
 ---------------------------------------------------------------------------------

 Call Graph Graphs:

 _main (ROOT)
   _init
   _loop
   _setup
     _lcd_init_i2c
       _i2c_init
         ___lldiv
         _pinMode
           _analogInput
       _lcd_begin
         _delay
         _e_pulse
           _i2c_out
             _i2c_idle
         _i2c_out
           _i2c_idle
         _lcdDelay
         _lcd_nibble
           _digitalWrite
         _lcd_putdata
           _digitalWrite
           _e_pulse
             _i2c_out
               _i2c_idle
           _i2c_out
             _i2c_idle
           _lcd_nibble
             _digitalWrite
     _lcd_print
       _lcd_putc
         _digitalWrite
         _e_pulse
           _i2c_out
             _i2c_idle
         _i2c_out
           _i2c_idle
         _lcd_putdata
           _digitalWrite
           _e_pulse
             _i2c_out
               _i2c_idle
           _i2c_out
             _i2c_idle
           _lcd_nibble
             _digitalWrite
     _lcd_setCursor
       _lcdDelay
       _lcd_putdata
         _digitalWrite
         _e_pulse
           _i2c_out
             _i2c_idle
         _i2c_out
           _i2c_idle
         _lcd_nibble
           _digitalWrite
   _sync
   _task

 _InterruptHandlerHigh (ROOT)
   _INT0_ISR
     _INT0_CallBack
   _INT1_ISR
     _INT1_CallBack
   _INT2_ISR
     _INT2_CallBack

 Address spaces:
Name               Size   Autos  Total    Cost      Usage
BIGRAM             5FF      0       0      16        0.0%
EEDATA             100      0       0       0        0.0%
BITBANK5           100      0       0      14        0.0%
BANK5              100      0       0      15        0.0%
BITBANK4           100      0       0      12        0.0%
BANK4              100      0       0      13        0.0%
BITBANK3           100      0       0      10        0.0%
BANK3              100      0       0      11        0.0%
BITBANK2           100      0       0       7        0.0%
BANK2              100      0       0       8        0.0%
BITBANK1           100      0       0       5        0.0%
BANK1              100      0      C0       6       75.0%
BITBANK0            A0      0       0       3        0.0%
BANK0               A0     13      82       4       81.3%
BITCOMRAM           5F      0       0       0        0.0%
COMRAM              5F     1C      4E       1       82.1%
BITSFR_1             0      0       0      40        0.0%
SFR_1                0      0       0      40        0.0%
BITSFR               0      0       0      40        0.0%
SFR                  0      0       0      40        0.0%
STACK                0      0       0       2        0.0%
NULL                 0      0       0       0        0.0%
ABS                  0      0     190       9        0.0%
DATA                 0      0     190      17        0.0%
CODE                 0      0       0       0        0.0%


Microchip Technology PIC18 Macro Assembler V1.33 build 59893 
Symbol Table                                                                                   Fri Oct 02 22:39:12 2020

               ?_lcd_setCursor 0047                   ?_lcd_putdata 002F                    _SSPSTATbits 000FC7  
                          l500 066C                            l405 1146                            l502 0672  
                          l601 08DC                            l521 06F0                            l514 06CC  
                          l611 0918                            l603 08E2                            l531 0738  
                          l507 069C                            l516 06D2                            l621 0954  
                          l613 091E                            l541 0774                            l533 073E  
                          l509 06A2                            l606 08FA                            l526 071A  
                          l631 0990                            l623 095A                            l551 07B0  
                          l543 077A                            l519 06EA                            l616 0936  
                          l608 0900                            l536 0756                            l528 0720  
                          l720 0B78                            l641 09CC                            l633 0996  
                          l561 07EC                            l553 07B6                            l721 0B84  
                          l626 0972                            l618 093C                            l546 0792  
                          l538 075C                            l730 0BF0                            l722 0B90  
                          l651 0A08                            l643 09D2                            l571 0828  
                          l563 07F2                            l731 0BFC                            l723 0B9C  
                          l636 09AE                            l628 0978                            l556 07CE  
                          l548 0798                            l492 063C                            l740 0C68  
                          l732 0C08                            l724 0BA8                            l661 0A44  
                          l653 0A0E                            l581 0864                            l573 082E  
                          l741 0C74                            l733 0C14                            l725 0BB4  
                          l717 0B60                            l477 1586                            l646 09EA  
                          l638 09B4                            l566 080A                            l558 07D4  
                          l750 0CE0                            l742 0C80                            l734 0C20  
                          l726 0BC0                            l902 1080                            l671 0A80  
                          l663 0A4A                            l591 08A0                            l583 086A  
                          l495 0642                            l487 0612                            l751 0CEC  
                          l743 0C8C                            l735 0C2C                            l727 0BCC  
                          l719 0B6C                            l656 0A26                            l648 09F0  
                          l576 0846                            l568 0810                            l752 0CF8  
                          l744 0C98                            l736 0C38                            l728 0BD8  
                          l593 08A6                            l745 0CA4                            l737 0C44  
                          l729 0BE4                            l666 0A62                            l658 0A2C  
                          l586 0882                            l578 084C                            l746 0CB0  
                          l738 0C50                            l747 0CBC                            l739 0C5C  
                          l668 0A68                            l596 08BE                            l588 0888  
                          l748 0CC8                            l749 0CD4                            l598 08C4  
                          l885 0FB0                            l879 12CE                            l989 0F0C  
                          _PR2 000FBB                            prod 000FF3                            wreg 000FE8  
                _INT0_CallBack 15C6                  _INT1_CallBack 15C4                           l1220 13A4  
                         l1212 1368                           l1221 1398                           l1215 138A  
                         l1224 13A6                           l1216 137E                           l1197 125E  
                         l4201 07C0                           l4121 065A                           l4105 061C  
                         l4213 07FC                           l4141 06AC                           l4133 068A  
                         l4117 064C                           l4109 062A                           l4061 1276  
                         l4303 09BE                           l4231 0856                           l4207 07DE  
                         l4063 1280                           l4321 0A18                           l4225 0838  
                         l4153 06DC                           l4145 06BA                           l4129 067C  
                         l4073 12AA                           l4401 1028                           l4315 09FA  
                         l4243 0892                           l4219 081A                           l4171 072A  
                         l4163 0708                           l4091 14D2                           l4075 12B4  
                         l4067 1290                           l4403 1032                           l4333 0A54  
                         l4309 09DC                           l4261 08EC                           l4237 0874  
                         l4069 129A                           l4413 105C                           l4327 0A36  
                         l4255 08CE                           l4183 0766                           l4159 06FA  
                         l4095 14E2                           l4079 12C4                           l4415 1066  
                         l4407 1042                           l4273 0928                           l4249 08B0  
                         l4177 0748                           l4345 0A86                           l4097 14E8  
                         l4353 150C                           l4409 104C                           l1875 1128  
                         l4339 0A72                           l4291 0982                           l4267 090A  
                         l4195 07A2                           l4099 14F0                           l4355 1512  
                         l4419 1076                           l4363 0F74                           l4515 0EC4  
                         l4285 0964                           l4189 0784                           l4349 14FC  
                         l4357 151A                           l4279 0946                           l4391 0FFE  
                         l4383 0FDA                           l4471 1356                           l4297 09A0  
                         l4385 0FE4                           l4377 0FC0                           l4473 1358  
                         l4395 100E                           l4379 0FCA                           l4467 1336  
                         l5701 10DC                           l4397 1018                           l4389 0FF4  
                         l4575 1190                           l4495 0E44                           l5709 1118  
                         l5743 1458                           l3993 1564                           l5739 143E  
                         l3999 0D04                           l5697 10CA                           l5699 10D8  
                         STR_1 0601                           _LATA 000F89                           _LATB 000F8A  
                         _LATC 000F8B                           _LATD 000F8C                           _LATE 000F8D  
                         u3405 0B68                           u3406 0B6A                           u3415 0B74  
                         u3416 0B76                           u3505 0BE0                           u3425 0B80  
                         u3506 0BE2                           u3426 0B82                           u3515 0BEC  
                         u3435 0B8C                           u3380 156E                           u3516 0BEE  
                         u3436 0B8E                           u3605 0C58                           u3525 0BF8  
                         u3445 0B98                           u3606 0C5A                           u3526 0BFA  
                         u3446 0B9A                           u3615 0C64                           u3535 0C04  
                         u3455 0BA4                           u3616 0C66                           u3536 0C06  
                         u3456 0BA6                           u3705 0CD0                           u3625 0C70  
                         u3545 0C10                           u3465 0BB0                           u3706 0CD2  
                         u3626 0C72                           u3546 0C12                           u3466 0BB2  
                         u3715 0CDC                           u3635 0C7C                           u3555 0C1C  
                         u3475 0BBC                           _PEIE 007F96                           u3388 1570  
                         u3716 0CDE                           u3636 0C7E                           u3556 0C1E  
                         u3476 0BBE                           u3725 0CE8                           u3645 0C88  
                         u3565 0C28                           u3485 0BC8                           u3814 1536  
                         u3726 0CEA                           u3646 0C8A                           u3566 0C2A  
                         u3486 0BCA                           u3815 1532                           u3735 0CF4  
                         u3655 0C94                           u3575 0C34                           u3495 0BD4  
                         u3736 0CF6                           u3656 0C96                           u3576 0C36  
                         u3496 0BD6                           u3745 0D00                           u3665 0CA0  
                         u3585 0C40                           u3746 0D02                           u3666 0CA2  
                         u3586 0C42                           u3675 0CAC                           u3595 0C4C  
                         _RCIE 007CED                           u3676 0CAE                           u3596 0C4E  
                         _RCIF 007CF5                           u3685 0CB8                           u3686 0CBA  
                         u6415 1208                           u3695 0CC4                           u3696 0CC6  
                         _RCIP 007CFD                           _TMR2 000FBC                           _TXIE 007CEC  
                         _TXIF 007CF4                           _TXIP 007CFC                  _INT2_CallBack 15C2  
                         _main 157E                           _init 113A                           _loop 15C0  
                         _task 15BE                           fsr0h 000FEA                           fsr1h 000FE2  
                         fsr0l 000FE9                           fsr2h 000FDA                           fsr1l 000FE1  
                         indf2 000FDF                           fsr2l 000FD9                           _sync 1596  
                         pclat 000FFA                 ??_lcd_init_i2c 004A                   lcd_nibble@nd 0042  
                         prodh 000FF4                           prodl 000FF3                           start 0294  
              __end_of_i2c_out 13B2               __end_of_INT0_ISR 15BA               __end_of_INT1_ISR 15B2  
             __end_of_INT2_ISR 15AA                   _BAUDCON1bits 000FB8                   _BAUDCON2bits 000F70  
                        ?_main 002F                          ?_init 002F                          _EEADR 000FA9  
                        ?_loop 002F                          ?_task 002F                __end_of___lldiv 113A  
                        ?_sync 002F                          _T0CON 000FD5                          _T1CON 000FCD  
                        _T2CON 000FBA                          _RC2IE 007D1D                          _RC2IF 007D25  
                        _RC2IP 007D2D                          i2l402 025A                          i2l372 0136  
                        i2l373 0096                          i2l382 00D4                          i2l375 00A6  
                        i2l367 004C                          i2l369 0058                          i2l395 01D0  
                        _HMSec 004B                          _RCSTA 000FAB                          _TMR0H 000FD7  
                        _TMR1H 000FCF                          _TMR0L 000FD6                          _TMR1L 000FCE  
                        _TX2IE 007D1C                          _TX2IF 007D24                          _TX2IP 007D2C  
               ?_INT0_CallBack 002F                          _TXREG 000FAD                          _TXSTA 000FAC  
                        _Flags 0001                          __Addr 0006                __end_of_e_pulse 14A0  
                        _Task1 0002                          _Task2 00C0                          _Task3 00C1  
                        _Task4 00C2                          _Task5 00C3                          _Task6 00C4  
                        _Task7 00C5                          _Task8 00C6                   lcd_print@str 00CF  
               ?_INT1_CallBack 002F                 _i2c_error_flag 00C9                          __cols 00C7  
                        _delay 14CE                    i2c_out@data 0041                          __rows 00C8  
              __end_of_pinMode 0B5C                          _setup 14A0                 ?_INT2_CallBack 002F  
                 lcd_putdata@d 0046                          init@i 0040                          tablat 000FF5  
                        status 000FD8           __size_of_analogInput 0022           lcd_init_i2c@lcd_Addr 004A  
         lcd_init_i2c@lcd_cols 00E0           __end_of_digitalWrite 0DDA                __initialization 13B2  
         lcd_init_i2c@lcd_rows 00E1                ??_lcd_setCursor 0048                   __end_of_main 1596  
                 __end_of_init 11D4                   __end_of_loop 15C2                   __end_of_task 15C0  
                 __end_of_sync 15A2               __end_of_i2c_idle 157E               __end_of_i2c_init 1264  
                       ??_main 004B                         ??_init 0040                         ??_loop 0040  
                       ??_task 0040                         ??_sync 0040                  __activetblptr 000002  
                       ?_delay 0040                         _ADCON0 000FC2                         _ADCON1 000FC1  
                       _ADCON2 000FC0              lcd_begin@lcd_cols 0048                         _ADRESH 000FC4  
                       _ADRESL 000FC3                         _EEDATA 000FA8                         _CCPR1H 000FBF  
                       _CCPR2H 000F68                         _CCPR3H 000F5F                         _CCPR1L 000FBE  
                       _CCPR4H 000F59                         _CCPR2L 000F67                         _CCPR3L 000F5E  
                       _CCPR4L 000F58                         _EECON2 000FA7              lcd_begin@lcd_rows 0047  
                       ?_setup 002F                         _ANSELA 000F38                         _ANSELB 000F39  
                       _ANSELC 000F3A                         _ANSELD 000F3B                         _ANSELE 000F3C  
                       _T1GCON 000FCC                         i2l4723 00C4                         i2l4805 01F6  
                       i2l4817 0222                         i2l4761 0160                         i2l4747 0112  
                       i2l4739 00E4                         i2l4829 024E                         i2l4773 018C  
                       i2l4687 0062                         i2l4785 01B8                         i2l4793 01C4  
                       _RCREG1 000FAE                         _RCREG2 000F74                         _RCSTA2 000F71  
                       _OSCCON 000FD3                         _PLLRDY 007E97                         _TMR0IE 007F95  
                       _SPBRG1 000FAF                         _TMR0IF 007F92                         _SPBRG2 000F75  
                       _TMR0IP 007F8A                         _SPBRGH 000FB0                         _SSPADD 000FC8  
        InterruptHandlerHigh@i 003F                         _TXREG2 000F73                         _TXSTA2 000F72  
                    ??_i2c_out 0042               __end_of_lcdDelay 1524                         _OneSec 004C  
                       _TmrSec 004D                   _CCPTMRS0bits 000F49                   _CCPTMRS1bits 000F48  
             __end_of_lcd_putc 135E                     _TimerArray 00A2                      ??___lldiv 0048  
                       _lcd_d0 0011                         _lcd_d1 0012                         _lcd_d2 0013  
                       _lcd_d3 0014                         _lcd_d4 0015                         _lcd_d5 0016  
                       _lcd_d6 0017                         _lcd_d7 0018                         _lcd_en 0019  
                       _lcd_rs 001B                         delay@i 0042                         clear_0 13B8  
                       clear_1 13C4                         clear_2 13D0                         _kstate 0010  
                    ??_e_pulse 0043                ??_INT0_CallBack 002F           __size_of_lcd_putdata 0142  
                lcd_putdata@dd 0045                   __pdataCOMRAM 004B           __end_of_lcd_init_i2c 143C  
              ??_INT1_CallBack 002F                      ??_pinMode 0045                   __mediumconst 0000  
                       tblptrh 000FF7                         tblptrl 000FF6                         tblptru 000FF8  
              ??_INT2_CallBack 002F                     __accesstop 0060        __end_of__initialization 13F6  
                    ?_INT0_ISR 002F                      ?_INT1_ISR 002F                      ?_INT2_ISR 002F  
               _uart1_rx_ready 0022                    pinMode@mode 0044                 _uart2_rx_ready 002A  
               __pcstackCOMRAM 002F                  __end_of_delay 14FA                  __end_of_setup 14CE  
             lcd_setCursor@col 0048               lcd_setCursor@row 0047             keypadRead@stateOld 00CE  
           keypadRead@stateNew 00CD  __size_of_InterruptHandlerHigh 028C             __size_of_lcd_begin 0182  
                      ??_delay 0042             __size_of_lcd_print 0034                        ??_setup 004B  
                   __pbssBANK0 0060                     __pbssBANK1 0100                      ?_i2c_idle 002F  
                    ?_i2c_init 00D4          _INT0_InterruptHandler 00BA                     ??_INT0_ISR 002F  
                   ??_INT1_ISR 002F                     ??_INT2_ISR 002F          __size_of_digitalWrite 027E  
                      _CCP1CON 000FBD                        _CCP2CON 000F66                        _CCP3CON 000F5D  
                      _CCP4CON 000F57                        _ECCP1AS 000FB6                        _ECCP2AS 000F64  
                      _ECCP3AS 000F5B                        _OSCCON2 000FD2                     _lcd_nibble 1264  
                    ?_lcdDelay 0040                        _OSCTUNE 000F9B                        _PWM1CON 000FB7  
                      _PWM2CON 000F65                        _PWM3CON 000F5C                   _digitalWrite 0B5C  
                      _SPBRGH2 000F76                        _SSP1BUF 000FC9                        _SSPCON2 000FC5  
       InterruptHandlerHigh@dd 003D                      ?_lcd_putc 002F                     ??_i2c_idle 0040  
                   ??_i2c_init 00D8                        _i2c_out 135E                        __Hparam 0000  
                      __Lparam 0000              __end_of_lcd_begin 0F5C                        _TmrRxd1 0004  
                      _TmrRxd2 0005              __end_of_lcd_print 1470                        ___lldiv 109E  
                 __psmallconst 0600          __size_of_lcd_init_i2c 003C                        __pcinit 13B2  
                      __ramtop 0600                        _e_pulse 1470                        __ptext0 157E  
                      __ptext1 15BE                        __ptext2 1596                        __ptext3 14A0  
                      __ptext4 1546                        __ptext5 143C                        __ptext6 12EC  
                      __ptext7 1400                        __ptext8 0DDA                        __ptext9 0F5C  
                    _T1CONbits 000FCD                      _T2CONbits 000FBA                        _pinMode 060E  
                      delay@ms 0040                     ??_lcdDelay 0042                        _sysTick 00B6  
                   ??_lcd_putc 0047           end_of_initialization 13F6                  ??_analogInput 0040  
                   lcdDelay@ms 0040                  __Lmediumconst 0000                ___lldiv@divisor 0044  
                 _lcd_init_i2c 1400                ___lldiv@counter 00D3                        postdec1 000FE5  
                      postdec2 000FDD                        postinc0 000FEE                        postinc2 000FDE  
        __end_of_lcd_setCursor 1564                      _PORTAbits 000F80          _INT1_InterruptHandler 00BC  
                    _PORTBbits 000F81                      _PORTCbits 000F82                      _PORTDbits 000F83  
                    _PORTEbits 000F84                    ?_lcd_nibble 002F                      _TRISAbits 000F92  
                    _TRISBbits 000F93                      _TRISCbits 000F94                      _TRISDbits 000F95  
                    _TRISEbits 000F96                     lcd_begin@d 0049                      i2c_init@c 00D4  
                   lcd_putc@dd 0049              __size_of_INT0_ISR 0008              __size_of_INT1_ISR 0008  
            __size_of_INT2_ISR 0008            __end_of_analogInput 1546                  ??_lcd_putdata 0045  
                __pidataCOMRAM 15BA          __end_of_INT0_CallBack 15C8            start_initialization 13B2  
             keypadRead@keyOld 002E               keypadRead@keyNew 002D          __end_of_INT1_CallBack 15C6  
        __end_of_INT2_CallBack 15C4   __end_of_InterruptHandlerHigh 0294              __size_of_i2c_idle 001A  
            __size_of_i2c_init 0090            __size_of_lcd_nibble 0088                      _TimerFlag 0003  
          __end_of_lcd_putdata 109E                  _uart1_rx_char 001F                    __pbssCOMRAM 0001  
                _uart2_rx_char 0027                  __pcstackBANK0 00CF                     pinMode@pin 0045  
          __end_of__stringdata 060D              __size_of_lcdDelay 002A                    _analogInput 1524  
        _INT2_InterruptHandler 00BE              __size_of_lcd_putc 0072                       ?_i2c_out 0041  
                    __pintcode 0008                       ?___lldiv 0040                      _lcd_begin 0DDA  
                     ?_e_pulse 002F                      _lcd_print 143C                    __smallconst 0600  
                     ?_pinMode 0044                 __size_of_delay 002C                 __size_of_setup 002E  
                     _INT0_ISR 15B2                       _INT1_ISR 15AA                       _INT2_ISR 15A2  
                     _LATAbits 000F89                       _LATBbits 000F8A                       _LATCbits 000F8B  
                     _LATDbits 000F8C                       _LATEbits 000F8D                      lcdDelay@i 0042  
                     _PIE3bits 000FA3                   analogInput@d 0043                      e_pulse@dd 0044  
                     _PIR1bits 000F9E                       _RCONbits 000FD0                       _PSTR1CON 000FB9  
                     _PSTR2CON 000F63                       _PSTR3CON 000F5A                    _lcd_putdata 0F5C  
                     _VREFCON0 000F42                     ?_lcd_begin 0047                     ?_lcd_print 00CF  
                   _ADCON0bits 000FC2                    __stringdata 0601           _InterruptHandlerHigh 0008  
                    lcd_putc@d 0048                      lcd_putc@i 0047                   ??_lcd_nibble 0042  
                  _INTCON2bits 000FF1                    _INTCON3bits 000FF0                      copy_data0 13EA  
                     _i2c_idle 1564                       _i2c_init 11D4                     _EECON1bits 000FA6  
                     __Hrparam 0000               __size_of_i2c_out 0054                       __Lrparam 0000  
                 _uart1_cr_cnt 001D                   _uart1_lf_cnt 001E                   _uart2_cr_cnt 0025  
           __end_of_lcd_nibble 12EC                   _uart2_lf_cnt 0026               __size_of___lldiv 009C  
                 _uart1_rx_cnt 0020                   _uart1_rx_pos 0021                   _uart1_tx_cnt 0023  
                 _uart1_tx_pos 0024                   _uart2_rx_cnt 0028                   _uart2_rx_pos 0029  
                 _uart2_tx_cnt 002B                   _uart2_tx_pos 002C               __size_of_e_pulse 0030  
        ?_InterruptHandlerHigh 002F               __size_of_pinMode 054E                       _lcdDelay 14FA  
                     __ptext10 1264                       __ptext11 0B5C                       __ptext20 109E  
                     __ptext12 1470                       __ptext21 15C0                       __ptext13 135E  
                     __ptext22 113A                       __ptext14 1564                       __ptext15 14FA  
                     __ptext24 15A2                       __ptext16 14CE                       __ptext25 15C2  
                     __ptext17 11D4                       __ptext26 15AA                       __ptext18 060E  
                     __ptext27 15C4                       __ptext19 1524                       __ptext28 15B2  
                     __ptext29 15C6                    _keypad_col1 0007                    _keypad_col2 0008  
                  _keypad_col3 0009                    _keypad_col4 000A                    _keypad_mode 000B  
                     _lcd_disp 004E                    _keypad_row1 000C                    _keypad_row2 000D  
                     _lcd_cols 00CA                    _keypad_row3 000E                    _keypad_row4 000F  
                     _lcd_mode 001A                       _lcd_temp 00CC                       _lcd_putc 12EC  
                     _lcd_rows 00CB         __size_of_lcd_setCursor 001E                  __size_of_main 0018  
                __size_of_init 009A                  __size_of_loop 0002                  __size_of_task 0002  
                __size_of_sync 000C                       e_pulse@k 0043                       _spi_mode 001C  
                  ??_lcd_begin 0048                    ??_lcd_print 004A           i2c_out@slave_address 0042  
                   _INTCONbits 000FF2                  ?_digitalWrite 0040                    _uart1_rxbuf 0100  
                  _uart1_txbuf 0060                    _uart2_rxbuf 0160                    _uart2_txbuf 0081  
                     intlevel2 0000                 analogInput@ANx 0042                   ?_analogInput 002F  
            digitalWrite@value 0040               ___lldiv@dividend 0040                     _RCSTA2bits 000F71  
       __size_of_INT0_CallBack 0002         __size_of_INT1_CallBack 0002                  _lcd_setCursor 1546  
       __size_of_INT2_CallBack 0002         ??_InterruptHandlerHigh 002F               ___lldiv@quotient 00CF  
               ??_digitalWrite 0041                    _SSPCON1bits 000FC6                    _SSPCON2bits 000FC5  
              digitalWrite@pin 0041                  ?_lcd_init_i2c 00E0  
